
interface.elf:     file format elf32-avr

Sections:
Idx Name          Size      VMA       LMA       File off  Algn
  0 .text         0000302c  00000000  00000000  00000094  2**1
                  CONTENTS, ALLOC, LOAD, READONLY, CODE
  1 .data         00000082  00800060  0000302c  000030c0  2**0
                  CONTENTS, ALLOC, LOAD, DATA
  2 .bss          0000001b  008000e2  008000e2  00003142  2**0
                  ALLOC
  3 .comment      00000030  00000000  00000000  00003142  2**0
                  CONTENTS, READONLY
  4 .note.gnu.avr.deviceinfo 0000003c  00000000  00000000  00003174  2**2
                  CONTENTS, READONLY
  5 .debug_info   000004e6  00000000  00000000  000031b0  2**0
                  CONTENTS, READONLY, DEBUGGING
  6 .debug_abbrev 000004a3  00000000  00000000  00003696  2**0
                  CONTENTS, READONLY, DEBUGGING
  7 .debug_line   00000116  00000000  00000000  00003b39  2**0
                  CONTENTS, READONLY, DEBUGGING
  8 .debug_str    00000196  00000000  00000000  00003c4f  2**0
                  CONTENTS, READONLY, DEBUGGING

Disassembly of section .text:

00000000 <__vectors>:
       0:	0c 94 2a 00 	jmp	0x54	; 0x54 <__ctors_end>
       4:	0c 94 43 12 	jmp	0x2486	; 0x2486 <__vector_1>
       8:	0c 94 7a 12 	jmp	0x24f4	; 0x24f4 <__vector_2>
       c:	0c 94 b1 12 	jmp	0x2562	; 0x2562 <__vector_3>
      10:	0c 94 47 00 	jmp	0x8e	; 0x8e <__bad_interrupt>
      14:	0c 94 47 00 	jmp	0x8e	; 0x8e <__bad_interrupt>
      18:	0c 94 f9 15 	jmp	0x2bf2	; 0x2bf2 <__vector_6>
      1c:	0c 94 8b 15 	jmp	0x2b16	; 0x2b16 <__vector_7>
      20:	0c 94 c2 15 	jmp	0x2b84	; 0x2b84 <__vector_8>
      24:	0c 94 54 15 	jmp	0x2aa8	; 0x2aa8 <__vector_9>
      28:	0c 94 47 00 	jmp	0x8e	; 0x8e <__bad_interrupt>
      2c:	0c 94 56 13 	jmp	0x26ac	; 0x26ac <__vector_11>
      30:	0c 94 1f 13 	jmp	0x263e	; 0x263e <__vector_12>
      34:	0c 94 30 16 	jmp	0x2c60	; 0x2c60 <__vector_13>
      38:	0c 94 47 00 	jmp	0x8e	; 0x8e <__bad_interrupt>
      3c:	0c 94 67 16 	jmp	0x2cce	; 0x2cce <__vector_15>
      40:	0c 94 47 00 	jmp	0x8e	; 0x8e <__bad_interrupt>
      44:	0c 94 e8 12 	jmp	0x25d0	; 0x25d0 <__vector_17>
      48:	0c 94 47 00 	jmp	0x8e	; 0x8e <__bad_interrupt>
      4c:	0c 94 47 00 	jmp	0x8e	; 0x8e <__bad_interrupt>
      50:	0c 94 47 00 	jmp	0x8e	; 0x8e <__bad_interrupt>

00000054 <__ctors_end>:
      54:	11 24       	eor	r1, r1
      56:	1f be       	out	0x3f, r1	; 63
      58:	cf e5       	ldi	r28, 0x5F	; 95
      5a:	d8 e0       	ldi	r29, 0x08	; 8
      5c:	de bf       	out	0x3e, r29	; 62
      5e:	cd bf       	out	0x3d, r28	; 61

00000060 <__do_copy_data>:
      60:	10 e0       	ldi	r17, 0x00	; 0
      62:	a0 e6       	ldi	r26, 0x60	; 96
      64:	b0 e0       	ldi	r27, 0x00	; 0
      66:	ec e2       	ldi	r30, 0x2C	; 44
      68:	f0 e3       	ldi	r31, 0x30	; 48
      6a:	02 c0       	rjmp	.+4      	; 0x70 <__do_copy_data+0x10>
      6c:	05 90       	lpm	r0, Z+
      6e:	0d 92       	st	X+, r0
      70:	a2 3e       	cpi	r26, 0xE2	; 226
      72:	b1 07       	cpc	r27, r17
      74:	d9 f7       	brne	.-10     	; 0x6c <__do_copy_data+0xc>

00000076 <__do_clear_bss>:
      76:	20 e0       	ldi	r18, 0x00	; 0
      78:	a2 ee       	ldi	r26, 0xE2	; 226
      7a:	b0 e0       	ldi	r27, 0x00	; 0
      7c:	01 c0       	rjmp	.+2      	; 0x80 <.do_clear_bss_start>

0000007e <.do_clear_bss_loop>:
      7e:	1d 92       	st	X+, r1

00000080 <.do_clear_bss_start>:
      80:	ad 3f       	cpi	r26, 0xFD	; 253
      82:	b2 07       	cpc	r27, r18
      84:	e1 f7       	brne	.-8      	; 0x7e <.do_clear_bss_loop>
      86:	0e 94 ea 09 	call	0x13d4	; 0x13d4 <main>
      8a:	0c 94 14 18 	jmp	0x3028	; 0x3028 <_exit>

0000008e <__bad_interrupt>:
      8e:	0c 94 00 00 	jmp	0	; 0x0 <__vectors>

00000092 <WriteIns>:
      92:	cf 93       	push	r28
      94:	df 93       	push	r29
      96:	cd b7       	in	r28, 0x3d	; 61
      98:	de b7       	in	r29, 0x3e	; 62
      9a:	e9 97       	sbiw	r28, 0x39	; 57
      9c:	0f b6       	in	r0, 0x3f	; 63
      9e:	f8 94       	cli
      a0:	de bf       	out	0x3e, r29	; 62
      a2:	0f be       	out	0x3f, r0	; 63
      a4:	cd bf       	out	0x3d, r28	; 61
      a6:	89 af       	std	Y+57, r24	; 0x39
      a8:	60 e0       	ldi	r22, 0x00	; 0
      aa:	81 e0       	ldi	r24, 0x01	; 1
      ac:	0e 94 6b 0f 	call	0x1ed6	; 0x1ed6 <DIO_WritePin>
      b0:	89 ad       	ldd	r24, Y+57	; 0x39
      b2:	88 1f       	adc	r24, r24
      b4:	88 27       	eor	r24, r24
      b6:	88 1f       	adc	r24, r24
      b8:	68 2f       	mov	r22, r24
      ba:	86 e0       	ldi	r24, 0x06	; 6
      bc:	0e 94 6b 0f 	call	0x1ed6	; 0x1ed6 <DIO_WritePin>
      c0:	89 ad       	ldd	r24, Y+57	; 0x39
      c2:	82 95       	swap	r24
      c4:	86 95       	lsr	r24
      c6:	86 95       	lsr	r24
      c8:	83 70       	andi	r24, 0x03	; 3
      ca:	81 70       	andi	r24, 0x01	; 1
      cc:	68 2f       	mov	r22, r24
      ce:	85 e0       	ldi	r24, 0x05	; 5
      d0:	0e 94 6b 0f 	call	0x1ed6	; 0x1ed6 <DIO_WritePin>
      d4:	89 ad       	ldd	r24, Y+57	; 0x39
      d6:	82 95       	swap	r24
      d8:	86 95       	lsr	r24
      da:	87 70       	andi	r24, 0x07	; 7
      dc:	81 70       	andi	r24, 0x01	; 1
      de:	68 2f       	mov	r22, r24
      e0:	84 e0       	ldi	r24, 0x04	; 4
      e2:	0e 94 6b 0f 	call	0x1ed6	; 0x1ed6 <DIO_WritePin>
      e6:	89 ad       	ldd	r24, Y+57	; 0x39
      e8:	82 95       	swap	r24
      ea:	8f 70       	andi	r24, 0x0F	; 15
      ec:	81 70       	andi	r24, 0x01	; 1
      ee:	68 2f       	mov	r22, r24
      f0:	83 e0       	ldi	r24, 0x03	; 3
      f2:	0e 94 6b 0f 	call	0x1ed6	; 0x1ed6 <DIO_WritePin>
      f6:	61 e0       	ldi	r22, 0x01	; 1
      f8:	82 e0       	ldi	r24, 0x02	; 2
      fa:	0e 94 6b 0f 	call	0x1ed6	; 0x1ed6 <DIO_WritePin>
      fe:	80 e0       	ldi	r24, 0x00	; 0
     100:	90 e0       	ldi	r25, 0x00	; 0
     102:	a0 e8       	ldi	r26, 0x80	; 128
     104:	bf e3       	ldi	r27, 0x3F	; 63
     106:	89 83       	std	Y+1, r24	; 0x01
     108:	9a 83       	std	Y+2, r25	; 0x02
     10a:	ab 83       	std	Y+3, r26	; 0x03
     10c:	bc 83       	std	Y+4, r27	; 0x04
     10e:	20 e0       	ldi	r18, 0x00	; 0
     110:	30 e0       	ldi	r19, 0x00	; 0
     112:	4a ef       	ldi	r20, 0xFA	; 250
     114:	54 e4       	ldi	r21, 0x44	; 68
     116:	69 81       	ldd	r22, Y+1	; 0x01
     118:	7a 81       	ldd	r23, Y+2	; 0x02
     11a:	8b 81       	ldd	r24, Y+3	; 0x03
     11c:	9c 81       	ldd	r25, Y+4	; 0x04
     11e:	0e 94 4c 17 	call	0x2e98	; 0x2e98 <__mulsf3>
     122:	dc 01       	movw	r26, r24
     124:	cb 01       	movw	r24, r22
     126:	8f a7       	std	Y+47, r24	; 0x2f
     128:	98 ab       	std	Y+48, r25	; 0x30
     12a:	a9 ab       	std	Y+49, r26	; 0x31
     12c:	ba ab       	std	Y+50, r27	; 0x32
     12e:	20 e0       	ldi	r18, 0x00	; 0
     130:	30 e0       	ldi	r19, 0x00	; 0
     132:	40 e8       	ldi	r20, 0x80	; 128
     134:	5f e3       	ldi	r21, 0x3F	; 63
     136:	6f a5       	ldd	r22, Y+47	; 0x2f
     138:	78 a9       	ldd	r23, Y+48	; 0x30
     13a:	89 a9       	ldd	r24, Y+49	; 0x31
     13c:	9a a9       	ldd	r25, Y+50	; 0x32
     13e:	0e 94 9e 16 	call	0x2d3c	; 0x2d3c <__cmpsf2>
     142:	88 23       	and	r24, r24
     144:	2c f4       	brge	.+10     	; 0x150 <WriteIns+0xbe>
     146:	81 e0       	ldi	r24, 0x01	; 1
     148:	90 e0       	ldi	r25, 0x00	; 0
     14a:	9c ab       	std	Y+52, r25	; 0x34
     14c:	8b ab       	std	Y+51, r24	; 0x33
     14e:	3f c0       	rjmp	.+126    	; 0x1ce <WriteIns+0x13c>
     150:	20 e0       	ldi	r18, 0x00	; 0
     152:	3f ef       	ldi	r19, 0xFF	; 255
     154:	4f e7       	ldi	r20, 0x7F	; 127
     156:	57 e4       	ldi	r21, 0x47	; 71
     158:	6f a5       	ldd	r22, Y+47	; 0x2f
     15a:	78 a9       	ldd	r23, Y+48	; 0x30
     15c:	89 a9       	ldd	r24, Y+49	; 0x31
     15e:	9a a9       	ldd	r25, Y+50	; 0x32
     160:	0e 94 47 17 	call	0x2e8e	; 0x2e8e <__gesf2>
     164:	18 16       	cp	r1, r24
     166:	4c f5       	brge	.+82     	; 0x1ba <WriteIns+0x128>
     168:	20 e0       	ldi	r18, 0x00	; 0
     16a:	30 e0       	ldi	r19, 0x00	; 0
     16c:	40 e2       	ldi	r20, 0x20	; 32
     16e:	51 e4       	ldi	r21, 0x41	; 65
     170:	69 81       	ldd	r22, Y+1	; 0x01
     172:	7a 81       	ldd	r23, Y+2	; 0x02
     174:	8b 81       	ldd	r24, Y+3	; 0x03
     176:	9c 81       	ldd	r25, Y+4	; 0x04
     178:	0e 94 4c 17 	call	0x2e98	; 0x2e98 <__mulsf3>
     17c:	dc 01       	movw	r26, r24
     17e:	cb 01       	movw	r24, r22
     180:	bc 01       	movw	r22, r24
     182:	cd 01       	movw	r24, r26
     184:	0e 94 a3 16 	call	0x2d46	; 0x2d46 <__fixunssfsi>
     188:	dc 01       	movw	r26, r24
     18a:	cb 01       	movw	r24, r22
     18c:	9c ab       	std	Y+52, r25	; 0x34
     18e:	8b ab       	std	Y+51, r24	; 0x33
     190:	0f c0       	rjmp	.+30     	; 0x1b0 <WriteIns+0x11e>
     192:	88 ec       	ldi	r24, 0xC8	; 200
     194:	90 e0       	ldi	r25, 0x00	; 0
     196:	9e ab       	std	Y+54, r25	; 0x36
     198:	8d ab       	std	Y+53, r24	; 0x35
     19a:	8d a9       	ldd	r24, Y+53	; 0x35
     19c:	9e a9       	ldd	r25, Y+54	; 0x36
     19e:	01 97       	sbiw	r24, 0x01	; 1
     1a0:	f1 f7       	brne	.-4      	; 0x19e <WriteIns+0x10c>
     1a2:	9e ab       	std	Y+54, r25	; 0x36
     1a4:	8d ab       	std	Y+53, r24	; 0x35
     1a6:	8b a9       	ldd	r24, Y+51	; 0x33
     1a8:	9c a9       	ldd	r25, Y+52	; 0x34
     1aa:	01 97       	sbiw	r24, 0x01	; 1
     1ac:	9c ab       	std	Y+52, r25	; 0x34
     1ae:	8b ab       	std	Y+51, r24	; 0x33
     1b0:	8b a9       	ldd	r24, Y+51	; 0x33
     1b2:	9c a9       	ldd	r25, Y+52	; 0x34
     1b4:	89 2b       	or	r24, r25
     1b6:	69 f7       	brne	.-38     	; 0x192 <WriteIns+0x100>
     1b8:	14 c0       	rjmp	.+40     	; 0x1e2 <WriteIns+0x150>
     1ba:	6f a5       	ldd	r22, Y+47	; 0x2f
     1bc:	78 a9       	ldd	r23, Y+48	; 0x30
     1be:	89 a9       	ldd	r24, Y+49	; 0x31
     1c0:	9a a9       	ldd	r25, Y+50	; 0x32
     1c2:	0e 94 a3 16 	call	0x2d46	; 0x2d46 <__fixunssfsi>
     1c6:	dc 01       	movw	r26, r24
     1c8:	cb 01       	movw	r24, r22
     1ca:	9c ab       	std	Y+52, r25	; 0x34
     1cc:	8b ab       	std	Y+51, r24	; 0x33
     1ce:	8b a9       	ldd	r24, Y+51	; 0x33
     1d0:	9c a9       	ldd	r25, Y+52	; 0x34
     1d2:	98 af       	std	Y+56, r25	; 0x38
     1d4:	8f ab       	std	Y+55, r24	; 0x37
     1d6:	8f a9       	ldd	r24, Y+55	; 0x37
     1d8:	98 ad       	ldd	r25, Y+56	; 0x38
     1da:	01 97       	sbiw	r24, 0x01	; 1
     1dc:	f1 f7       	brne	.-4      	; 0x1da <WriteIns+0x148>
     1de:	98 af       	std	Y+56, r25	; 0x38
     1e0:	8f ab       	std	Y+55, r24	; 0x37
     1e2:	60 e0       	ldi	r22, 0x00	; 0
     1e4:	82 e0       	ldi	r24, 0x02	; 2
     1e6:	0e 94 6b 0f 	call	0x1ed6	; 0x1ed6 <DIO_WritePin>
     1ea:	80 e0       	ldi	r24, 0x00	; 0
     1ec:	90 e0       	ldi	r25, 0x00	; 0
     1ee:	a0 e8       	ldi	r26, 0x80	; 128
     1f0:	bf e3       	ldi	r27, 0x3F	; 63
     1f2:	8d 83       	std	Y+5, r24	; 0x05
     1f4:	9e 83       	std	Y+6, r25	; 0x06
     1f6:	af 83       	std	Y+7, r26	; 0x07
     1f8:	b8 87       	std	Y+8, r27	; 0x08
     1fa:	20 e0       	ldi	r18, 0x00	; 0
     1fc:	30 e0       	ldi	r19, 0x00	; 0
     1fe:	4a ef       	ldi	r20, 0xFA	; 250
     200:	54 e4       	ldi	r21, 0x44	; 68
     202:	6d 81       	ldd	r22, Y+5	; 0x05
     204:	7e 81       	ldd	r23, Y+6	; 0x06
     206:	8f 81       	ldd	r24, Y+7	; 0x07
     208:	98 85       	ldd	r25, Y+8	; 0x08
     20a:	0e 94 4c 17 	call	0x2e98	; 0x2e98 <__mulsf3>
     20e:	dc 01       	movw	r26, r24
     210:	cb 01       	movw	r24, r22
     212:	8d a3       	std	Y+37, r24	; 0x25
     214:	9e a3       	std	Y+38, r25	; 0x26
     216:	af a3       	std	Y+39, r26	; 0x27
     218:	b8 a7       	std	Y+40, r27	; 0x28
     21a:	20 e0       	ldi	r18, 0x00	; 0
     21c:	30 e0       	ldi	r19, 0x00	; 0
     21e:	40 e8       	ldi	r20, 0x80	; 128
     220:	5f e3       	ldi	r21, 0x3F	; 63
     222:	6d a1       	ldd	r22, Y+37	; 0x25
     224:	7e a1       	ldd	r23, Y+38	; 0x26
     226:	8f a1       	ldd	r24, Y+39	; 0x27
     228:	98 a5       	ldd	r25, Y+40	; 0x28
     22a:	0e 94 9e 16 	call	0x2d3c	; 0x2d3c <__cmpsf2>
     22e:	88 23       	and	r24, r24
     230:	2c f4       	brge	.+10     	; 0x23c <WriteIns+0x1aa>
     232:	81 e0       	ldi	r24, 0x01	; 1
     234:	90 e0       	ldi	r25, 0x00	; 0
     236:	9a a7       	std	Y+42, r25	; 0x2a
     238:	89 a7       	std	Y+41, r24	; 0x29
     23a:	3f c0       	rjmp	.+126    	; 0x2ba <WriteIns+0x228>
     23c:	20 e0       	ldi	r18, 0x00	; 0
     23e:	3f ef       	ldi	r19, 0xFF	; 255
     240:	4f e7       	ldi	r20, 0x7F	; 127
     242:	57 e4       	ldi	r21, 0x47	; 71
     244:	6d a1       	ldd	r22, Y+37	; 0x25
     246:	7e a1       	ldd	r23, Y+38	; 0x26
     248:	8f a1       	ldd	r24, Y+39	; 0x27
     24a:	98 a5       	ldd	r25, Y+40	; 0x28
     24c:	0e 94 47 17 	call	0x2e8e	; 0x2e8e <__gesf2>
     250:	18 16       	cp	r1, r24
     252:	4c f5       	brge	.+82     	; 0x2a6 <WriteIns+0x214>
     254:	20 e0       	ldi	r18, 0x00	; 0
     256:	30 e0       	ldi	r19, 0x00	; 0
     258:	40 e2       	ldi	r20, 0x20	; 32
     25a:	51 e4       	ldi	r21, 0x41	; 65
     25c:	6d 81       	ldd	r22, Y+5	; 0x05
     25e:	7e 81       	ldd	r23, Y+6	; 0x06
     260:	8f 81       	ldd	r24, Y+7	; 0x07
     262:	98 85       	ldd	r25, Y+8	; 0x08
     264:	0e 94 4c 17 	call	0x2e98	; 0x2e98 <__mulsf3>
     268:	dc 01       	movw	r26, r24
     26a:	cb 01       	movw	r24, r22
     26c:	bc 01       	movw	r22, r24
     26e:	cd 01       	movw	r24, r26
     270:	0e 94 a3 16 	call	0x2d46	; 0x2d46 <__fixunssfsi>
     274:	dc 01       	movw	r26, r24
     276:	cb 01       	movw	r24, r22
     278:	9a a7       	std	Y+42, r25	; 0x2a
     27a:	89 a7       	std	Y+41, r24	; 0x29
     27c:	0f c0       	rjmp	.+30     	; 0x29c <WriteIns+0x20a>
     27e:	88 ec       	ldi	r24, 0xC8	; 200
     280:	90 e0       	ldi	r25, 0x00	; 0
     282:	9c a7       	std	Y+44, r25	; 0x2c
     284:	8b a7       	std	Y+43, r24	; 0x2b
     286:	8b a5       	ldd	r24, Y+43	; 0x2b
     288:	9c a5       	ldd	r25, Y+44	; 0x2c
     28a:	01 97       	sbiw	r24, 0x01	; 1
     28c:	f1 f7       	brne	.-4      	; 0x28a <WriteIns+0x1f8>
     28e:	9c a7       	std	Y+44, r25	; 0x2c
     290:	8b a7       	std	Y+43, r24	; 0x2b
     292:	89 a5       	ldd	r24, Y+41	; 0x29
     294:	9a a5       	ldd	r25, Y+42	; 0x2a
     296:	01 97       	sbiw	r24, 0x01	; 1
     298:	9a a7       	std	Y+42, r25	; 0x2a
     29a:	89 a7       	std	Y+41, r24	; 0x29
     29c:	89 a5       	ldd	r24, Y+41	; 0x29
     29e:	9a a5       	ldd	r25, Y+42	; 0x2a
     2a0:	89 2b       	or	r24, r25
     2a2:	69 f7       	brne	.-38     	; 0x27e <WriteIns+0x1ec>
     2a4:	14 c0       	rjmp	.+40     	; 0x2ce <WriteIns+0x23c>
     2a6:	6d a1       	ldd	r22, Y+37	; 0x25
     2a8:	7e a1       	ldd	r23, Y+38	; 0x26
     2aa:	8f a1       	ldd	r24, Y+39	; 0x27
     2ac:	98 a5       	ldd	r25, Y+40	; 0x28
     2ae:	0e 94 a3 16 	call	0x2d46	; 0x2d46 <__fixunssfsi>
     2b2:	dc 01       	movw	r26, r24
     2b4:	cb 01       	movw	r24, r22
     2b6:	9a a7       	std	Y+42, r25	; 0x2a
     2b8:	89 a7       	std	Y+41, r24	; 0x29
     2ba:	89 a5       	ldd	r24, Y+41	; 0x29
     2bc:	9a a5       	ldd	r25, Y+42	; 0x2a
     2be:	9e a7       	std	Y+46, r25	; 0x2e
     2c0:	8d a7       	std	Y+45, r24	; 0x2d
     2c2:	8d a5       	ldd	r24, Y+45	; 0x2d
     2c4:	9e a5       	ldd	r25, Y+46	; 0x2e
     2c6:	01 97       	sbiw	r24, 0x01	; 1
     2c8:	f1 f7       	brne	.-4      	; 0x2c6 <WriteIns+0x234>
     2ca:	9e a7       	std	Y+46, r25	; 0x2e
     2cc:	8d a7       	std	Y+45, r24	; 0x2d
     2ce:	89 ad       	ldd	r24, Y+57	; 0x39
     2d0:	86 95       	lsr	r24
     2d2:	86 95       	lsr	r24
     2d4:	86 95       	lsr	r24
     2d6:	81 70       	andi	r24, 0x01	; 1
     2d8:	68 2f       	mov	r22, r24
     2da:	86 e0       	ldi	r24, 0x06	; 6
     2dc:	0e 94 6b 0f 	call	0x1ed6	; 0x1ed6 <DIO_WritePin>
     2e0:	89 ad       	ldd	r24, Y+57	; 0x39
     2e2:	86 95       	lsr	r24
     2e4:	86 95       	lsr	r24
     2e6:	81 70       	andi	r24, 0x01	; 1
     2e8:	68 2f       	mov	r22, r24
     2ea:	85 e0       	ldi	r24, 0x05	; 5
     2ec:	0e 94 6b 0f 	call	0x1ed6	; 0x1ed6 <DIO_WritePin>
     2f0:	89 ad       	ldd	r24, Y+57	; 0x39
     2f2:	86 95       	lsr	r24
     2f4:	81 70       	andi	r24, 0x01	; 1
     2f6:	68 2f       	mov	r22, r24
     2f8:	84 e0       	ldi	r24, 0x04	; 4
     2fa:	0e 94 6b 0f 	call	0x1ed6	; 0x1ed6 <DIO_WritePin>
     2fe:	89 ad       	ldd	r24, Y+57	; 0x39
     300:	81 70       	andi	r24, 0x01	; 1
     302:	68 2f       	mov	r22, r24
     304:	83 e0       	ldi	r24, 0x03	; 3
     306:	0e 94 6b 0f 	call	0x1ed6	; 0x1ed6 <DIO_WritePin>
     30a:	61 e0       	ldi	r22, 0x01	; 1
     30c:	82 e0       	ldi	r24, 0x02	; 2
     30e:	0e 94 6b 0f 	call	0x1ed6	; 0x1ed6 <DIO_WritePin>
     312:	80 e0       	ldi	r24, 0x00	; 0
     314:	90 e0       	ldi	r25, 0x00	; 0
     316:	a0 e8       	ldi	r26, 0x80	; 128
     318:	bf e3       	ldi	r27, 0x3F	; 63
     31a:	89 87       	std	Y+9, r24	; 0x09
     31c:	9a 87       	std	Y+10, r25	; 0x0a
     31e:	ab 87       	std	Y+11, r26	; 0x0b
     320:	bc 87       	std	Y+12, r27	; 0x0c
     322:	20 e0       	ldi	r18, 0x00	; 0
     324:	30 e0       	ldi	r19, 0x00	; 0
     326:	4a ef       	ldi	r20, 0xFA	; 250
     328:	54 e4       	ldi	r21, 0x44	; 68
     32a:	69 85       	ldd	r22, Y+9	; 0x09
     32c:	7a 85       	ldd	r23, Y+10	; 0x0a
     32e:	8b 85       	ldd	r24, Y+11	; 0x0b
     330:	9c 85       	ldd	r25, Y+12	; 0x0c
     332:	0e 94 4c 17 	call	0x2e98	; 0x2e98 <__mulsf3>
     336:	dc 01       	movw	r26, r24
     338:	cb 01       	movw	r24, r22
     33a:	8b 8f       	std	Y+27, r24	; 0x1b
     33c:	9c 8f       	std	Y+28, r25	; 0x1c
     33e:	ad 8f       	std	Y+29, r26	; 0x1d
     340:	be 8f       	std	Y+30, r27	; 0x1e
     342:	20 e0       	ldi	r18, 0x00	; 0
     344:	30 e0       	ldi	r19, 0x00	; 0
     346:	40 e8       	ldi	r20, 0x80	; 128
     348:	5f e3       	ldi	r21, 0x3F	; 63
     34a:	6b 8d       	ldd	r22, Y+27	; 0x1b
     34c:	7c 8d       	ldd	r23, Y+28	; 0x1c
     34e:	8d 8d       	ldd	r24, Y+29	; 0x1d
     350:	9e 8d       	ldd	r25, Y+30	; 0x1e
     352:	0e 94 9e 16 	call	0x2d3c	; 0x2d3c <__cmpsf2>
     356:	88 23       	and	r24, r24
     358:	2c f4       	brge	.+10     	; 0x364 <WriteIns+0x2d2>
     35a:	81 e0       	ldi	r24, 0x01	; 1
     35c:	90 e0       	ldi	r25, 0x00	; 0
     35e:	98 a3       	std	Y+32, r25	; 0x20
     360:	8f 8f       	std	Y+31, r24	; 0x1f
     362:	3f c0       	rjmp	.+126    	; 0x3e2 <WriteIns+0x350>
     364:	20 e0       	ldi	r18, 0x00	; 0
     366:	3f ef       	ldi	r19, 0xFF	; 255
     368:	4f e7       	ldi	r20, 0x7F	; 127
     36a:	57 e4       	ldi	r21, 0x47	; 71
     36c:	6b 8d       	ldd	r22, Y+27	; 0x1b
     36e:	7c 8d       	ldd	r23, Y+28	; 0x1c
     370:	8d 8d       	ldd	r24, Y+29	; 0x1d
     372:	9e 8d       	ldd	r25, Y+30	; 0x1e
     374:	0e 94 47 17 	call	0x2e8e	; 0x2e8e <__gesf2>
     378:	18 16       	cp	r1, r24
     37a:	4c f5       	brge	.+82     	; 0x3ce <WriteIns+0x33c>
     37c:	20 e0       	ldi	r18, 0x00	; 0
     37e:	30 e0       	ldi	r19, 0x00	; 0
     380:	40 e2       	ldi	r20, 0x20	; 32
     382:	51 e4       	ldi	r21, 0x41	; 65
     384:	69 85       	ldd	r22, Y+9	; 0x09
     386:	7a 85       	ldd	r23, Y+10	; 0x0a
     388:	8b 85       	ldd	r24, Y+11	; 0x0b
     38a:	9c 85       	ldd	r25, Y+12	; 0x0c
     38c:	0e 94 4c 17 	call	0x2e98	; 0x2e98 <__mulsf3>
     390:	dc 01       	movw	r26, r24
     392:	cb 01       	movw	r24, r22
     394:	bc 01       	movw	r22, r24
     396:	cd 01       	movw	r24, r26
     398:	0e 94 a3 16 	call	0x2d46	; 0x2d46 <__fixunssfsi>
     39c:	dc 01       	movw	r26, r24
     39e:	cb 01       	movw	r24, r22
     3a0:	98 a3       	std	Y+32, r25	; 0x20
     3a2:	8f 8f       	std	Y+31, r24	; 0x1f
     3a4:	0f c0       	rjmp	.+30     	; 0x3c4 <WriteIns+0x332>
     3a6:	88 ec       	ldi	r24, 0xC8	; 200
     3a8:	90 e0       	ldi	r25, 0x00	; 0
     3aa:	9a a3       	std	Y+34, r25	; 0x22
     3ac:	89 a3       	std	Y+33, r24	; 0x21
     3ae:	89 a1       	ldd	r24, Y+33	; 0x21
     3b0:	9a a1       	ldd	r25, Y+34	; 0x22
     3b2:	01 97       	sbiw	r24, 0x01	; 1
     3b4:	f1 f7       	brne	.-4      	; 0x3b2 <WriteIns+0x320>
     3b6:	9a a3       	std	Y+34, r25	; 0x22
     3b8:	89 a3       	std	Y+33, r24	; 0x21
     3ba:	8f 8d       	ldd	r24, Y+31	; 0x1f
     3bc:	98 a1       	ldd	r25, Y+32	; 0x20
     3be:	01 97       	sbiw	r24, 0x01	; 1
     3c0:	98 a3       	std	Y+32, r25	; 0x20
     3c2:	8f 8f       	std	Y+31, r24	; 0x1f
     3c4:	8f 8d       	ldd	r24, Y+31	; 0x1f
     3c6:	98 a1       	ldd	r25, Y+32	; 0x20
     3c8:	89 2b       	or	r24, r25
     3ca:	69 f7       	brne	.-38     	; 0x3a6 <WriteIns+0x314>
     3cc:	14 c0       	rjmp	.+40     	; 0x3f6 <WriteIns+0x364>
     3ce:	6b 8d       	ldd	r22, Y+27	; 0x1b
     3d0:	7c 8d       	ldd	r23, Y+28	; 0x1c
     3d2:	8d 8d       	ldd	r24, Y+29	; 0x1d
     3d4:	9e 8d       	ldd	r25, Y+30	; 0x1e
     3d6:	0e 94 a3 16 	call	0x2d46	; 0x2d46 <__fixunssfsi>
     3da:	dc 01       	movw	r26, r24
     3dc:	cb 01       	movw	r24, r22
     3de:	98 a3       	std	Y+32, r25	; 0x20
     3e0:	8f 8f       	std	Y+31, r24	; 0x1f
     3e2:	8f 8d       	ldd	r24, Y+31	; 0x1f
     3e4:	98 a1       	ldd	r25, Y+32	; 0x20
     3e6:	9c a3       	std	Y+36, r25	; 0x24
     3e8:	8b a3       	std	Y+35, r24	; 0x23
     3ea:	8b a1       	ldd	r24, Y+35	; 0x23
     3ec:	9c a1       	ldd	r25, Y+36	; 0x24
     3ee:	01 97       	sbiw	r24, 0x01	; 1
     3f0:	f1 f7       	brne	.-4      	; 0x3ee <WriteIns+0x35c>
     3f2:	9c a3       	std	Y+36, r25	; 0x24
     3f4:	8b a3       	std	Y+35, r24	; 0x23
     3f6:	60 e0       	ldi	r22, 0x00	; 0
     3f8:	82 e0       	ldi	r24, 0x02	; 2
     3fa:	0e 94 6b 0f 	call	0x1ed6	; 0x1ed6 <DIO_WritePin>
     3fe:	80 e0       	ldi	r24, 0x00	; 0
     400:	90 e0       	ldi	r25, 0x00	; 0
     402:	a0 e8       	ldi	r26, 0x80	; 128
     404:	bf e3       	ldi	r27, 0x3F	; 63
     406:	8d 87       	std	Y+13, r24	; 0x0d
     408:	9e 87       	std	Y+14, r25	; 0x0e
     40a:	af 87       	std	Y+15, r26	; 0x0f
     40c:	b8 8b       	std	Y+16, r27	; 0x10
     40e:	20 e0       	ldi	r18, 0x00	; 0
     410:	30 e0       	ldi	r19, 0x00	; 0
     412:	4a ef       	ldi	r20, 0xFA	; 250
     414:	54 e4       	ldi	r21, 0x44	; 68
     416:	6d 85       	ldd	r22, Y+13	; 0x0d
     418:	7e 85       	ldd	r23, Y+14	; 0x0e
     41a:	8f 85       	ldd	r24, Y+15	; 0x0f
     41c:	98 89       	ldd	r25, Y+16	; 0x10
     41e:	0e 94 4c 17 	call	0x2e98	; 0x2e98 <__mulsf3>
     422:	dc 01       	movw	r26, r24
     424:	cb 01       	movw	r24, r22
     426:	89 8b       	std	Y+17, r24	; 0x11
     428:	9a 8b       	std	Y+18, r25	; 0x12
     42a:	ab 8b       	std	Y+19, r26	; 0x13
     42c:	bc 8b       	std	Y+20, r27	; 0x14
     42e:	20 e0       	ldi	r18, 0x00	; 0
     430:	30 e0       	ldi	r19, 0x00	; 0
     432:	40 e8       	ldi	r20, 0x80	; 128
     434:	5f e3       	ldi	r21, 0x3F	; 63
     436:	69 89       	ldd	r22, Y+17	; 0x11
     438:	7a 89       	ldd	r23, Y+18	; 0x12
     43a:	8b 89       	ldd	r24, Y+19	; 0x13
     43c:	9c 89       	ldd	r25, Y+20	; 0x14
     43e:	0e 94 9e 16 	call	0x2d3c	; 0x2d3c <__cmpsf2>
     442:	88 23       	and	r24, r24
     444:	2c f4       	brge	.+10     	; 0x450 <__EEPROM_REGION_LENGTH__+0x50>
     446:	81 e0       	ldi	r24, 0x01	; 1
     448:	90 e0       	ldi	r25, 0x00	; 0
     44a:	9e 8b       	std	Y+22, r25	; 0x16
     44c:	8d 8b       	std	Y+21, r24	; 0x15
     44e:	3f c0       	rjmp	.+126    	; 0x4ce <__EEPROM_REGION_LENGTH__+0xce>
     450:	20 e0       	ldi	r18, 0x00	; 0
     452:	3f ef       	ldi	r19, 0xFF	; 255
     454:	4f e7       	ldi	r20, 0x7F	; 127
     456:	57 e4       	ldi	r21, 0x47	; 71
     458:	69 89       	ldd	r22, Y+17	; 0x11
     45a:	7a 89       	ldd	r23, Y+18	; 0x12
     45c:	8b 89       	ldd	r24, Y+19	; 0x13
     45e:	9c 89       	ldd	r25, Y+20	; 0x14
     460:	0e 94 47 17 	call	0x2e8e	; 0x2e8e <__gesf2>
     464:	18 16       	cp	r1, r24
     466:	4c f5       	brge	.+82     	; 0x4ba <__EEPROM_REGION_LENGTH__+0xba>
     468:	20 e0       	ldi	r18, 0x00	; 0
     46a:	30 e0       	ldi	r19, 0x00	; 0
     46c:	40 e2       	ldi	r20, 0x20	; 32
     46e:	51 e4       	ldi	r21, 0x41	; 65
     470:	6d 85       	ldd	r22, Y+13	; 0x0d
     472:	7e 85       	ldd	r23, Y+14	; 0x0e
     474:	8f 85       	ldd	r24, Y+15	; 0x0f
     476:	98 89       	ldd	r25, Y+16	; 0x10
     478:	0e 94 4c 17 	call	0x2e98	; 0x2e98 <__mulsf3>
     47c:	dc 01       	movw	r26, r24
     47e:	cb 01       	movw	r24, r22
     480:	bc 01       	movw	r22, r24
     482:	cd 01       	movw	r24, r26
     484:	0e 94 a3 16 	call	0x2d46	; 0x2d46 <__fixunssfsi>
     488:	dc 01       	movw	r26, r24
     48a:	cb 01       	movw	r24, r22
     48c:	9e 8b       	std	Y+22, r25	; 0x16
     48e:	8d 8b       	std	Y+21, r24	; 0x15
     490:	0f c0       	rjmp	.+30     	; 0x4b0 <__EEPROM_REGION_LENGTH__+0xb0>
     492:	88 ec       	ldi	r24, 0xC8	; 200
     494:	90 e0       	ldi	r25, 0x00	; 0
     496:	98 8f       	std	Y+24, r25	; 0x18
     498:	8f 8b       	std	Y+23, r24	; 0x17
     49a:	8f 89       	ldd	r24, Y+23	; 0x17
     49c:	98 8d       	ldd	r25, Y+24	; 0x18
     49e:	01 97       	sbiw	r24, 0x01	; 1
     4a0:	f1 f7       	brne	.-4      	; 0x49e <__EEPROM_REGION_LENGTH__+0x9e>
     4a2:	98 8f       	std	Y+24, r25	; 0x18
     4a4:	8f 8b       	std	Y+23, r24	; 0x17
     4a6:	8d 89       	ldd	r24, Y+21	; 0x15
     4a8:	9e 89       	ldd	r25, Y+22	; 0x16
     4aa:	01 97       	sbiw	r24, 0x01	; 1
     4ac:	9e 8b       	std	Y+22, r25	; 0x16
     4ae:	8d 8b       	std	Y+21, r24	; 0x15
     4b0:	8d 89       	ldd	r24, Y+21	; 0x15
     4b2:	9e 89       	ldd	r25, Y+22	; 0x16
     4b4:	89 2b       	or	r24, r25
     4b6:	69 f7       	brne	.-38     	; 0x492 <__EEPROM_REGION_LENGTH__+0x92>
     4b8:	14 c0       	rjmp	.+40     	; 0x4e2 <__EEPROM_REGION_LENGTH__+0xe2>
     4ba:	69 89       	ldd	r22, Y+17	; 0x11
     4bc:	7a 89       	ldd	r23, Y+18	; 0x12
     4be:	8b 89       	ldd	r24, Y+19	; 0x13
     4c0:	9c 89       	ldd	r25, Y+20	; 0x14
     4c2:	0e 94 a3 16 	call	0x2d46	; 0x2d46 <__fixunssfsi>
     4c6:	dc 01       	movw	r26, r24
     4c8:	cb 01       	movw	r24, r22
     4ca:	9e 8b       	std	Y+22, r25	; 0x16
     4cc:	8d 8b       	std	Y+21, r24	; 0x15
     4ce:	8d 89       	ldd	r24, Y+21	; 0x15
     4d0:	9e 89       	ldd	r25, Y+22	; 0x16
     4d2:	9a 8f       	std	Y+26, r25	; 0x1a
     4d4:	89 8f       	std	Y+25, r24	; 0x19
     4d6:	89 8d       	ldd	r24, Y+25	; 0x19
     4d8:	9a 8d       	ldd	r25, Y+26	; 0x1a
     4da:	01 97       	sbiw	r24, 0x01	; 1
     4dc:	f1 f7       	brne	.-4      	; 0x4da <__EEPROM_REGION_LENGTH__+0xda>
     4de:	9a 8f       	std	Y+26, r25	; 0x1a
     4e0:	89 8f       	std	Y+25, r24	; 0x19
     4e2:	00 00       	nop
     4e4:	e9 96       	adiw	r28, 0x39	; 57
     4e6:	0f b6       	in	r0, 0x3f	; 63
     4e8:	f8 94       	cli
     4ea:	de bf       	out	0x3e, r29	; 62
     4ec:	0f be       	out	0x3f, r0	; 63
     4ee:	cd bf       	out	0x3d, r28	; 61
     4f0:	df 91       	pop	r29
     4f2:	cf 91       	pop	r28
     4f4:	08 95       	ret

000004f6 <WriteData>:
     4f6:	cf 93       	push	r28
     4f8:	df 93       	push	r29
     4fa:	cd b7       	in	r28, 0x3d	; 61
     4fc:	de b7       	in	r29, 0x3e	; 62
     4fe:	e9 97       	sbiw	r28, 0x39	; 57
     500:	0f b6       	in	r0, 0x3f	; 63
     502:	f8 94       	cli
     504:	de bf       	out	0x3e, r29	; 62
     506:	0f be       	out	0x3f, r0	; 63
     508:	cd bf       	out	0x3d, r28	; 61
     50a:	89 af       	std	Y+57, r24	; 0x39
     50c:	61 e0       	ldi	r22, 0x01	; 1
     50e:	81 e0       	ldi	r24, 0x01	; 1
     510:	0e 94 6b 0f 	call	0x1ed6	; 0x1ed6 <DIO_WritePin>
     514:	89 ad       	ldd	r24, Y+57	; 0x39
     516:	88 1f       	adc	r24, r24
     518:	88 27       	eor	r24, r24
     51a:	88 1f       	adc	r24, r24
     51c:	68 2f       	mov	r22, r24
     51e:	86 e0       	ldi	r24, 0x06	; 6
     520:	0e 94 6b 0f 	call	0x1ed6	; 0x1ed6 <DIO_WritePin>
     524:	89 ad       	ldd	r24, Y+57	; 0x39
     526:	82 95       	swap	r24
     528:	86 95       	lsr	r24
     52a:	86 95       	lsr	r24
     52c:	83 70       	andi	r24, 0x03	; 3
     52e:	81 70       	andi	r24, 0x01	; 1
     530:	68 2f       	mov	r22, r24
     532:	85 e0       	ldi	r24, 0x05	; 5
     534:	0e 94 6b 0f 	call	0x1ed6	; 0x1ed6 <DIO_WritePin>
     538:	89 ad       	ldd	r24, Y+57	; 0x39
     53a:	82 95       	swap	r24
     53c:	86 95       	lsr	r24
     53e:	87 70       	andi	r24, 0x07	; 7
     540:	81 70       	andi	r24, 0x01	; 1
     542:	68 2f       	mov	r22, r24
     544:	84 e0       	ldi	r24, 0x04	; 4
     546:	0e 94 6b 0f 	call	0x1ed6	; 0x1ed6 <DIO_WritePin>
     54a:	89 ad       	ldd	r24, Y+57	; 0x39
     54c:	82 95       	swap	r24
     54e:	8f 70       	andi	r24, 0x0F	; 15
     550:	81 70       	andi	r24, 0x01	; 1
     552:	68 2f       	mov	r22, r24
     554:	83 e0       	ldi	r24, 0x03	; 3
     556:	0e 94 6b 0f 	call	0x1ed6	; 0x1ed6 <DIO_WritePin>
     55a:	61 e0       	ldi	r22, 0x01	; 1
     55c:	82 e0       	ldi	r24, 0x02	; 2
     55e:	0e 94 6b 0f 	call	0x1ed6	; 0x1ed6 <DIO_WritePin>
     562:	80 e0       	ldi	r24, 0x00	; 0
     564:	90 e0       	ldi	r25, 0x00	; 0
     566:	a0 e8       	ldi	r26, 0x80	; 128
     568:	bf e3       	ldi	r27, 0x3F	; 63
     56a:	89 83       	std	Y+1, r24	; 0x01
     56c:	9a 83       	std	Y+2, r25	; 0x02
     56e:	ab 83       	std	Y+3, r26	; 0x03
     570:	bc 83       	std	Y+4, r27	; 0x04
     572:	20 e0       	ldi	r18, 0x00	; 0
     574:	30 e0       	ldi	r19, 0x00	; 0
     576:	4a ef       	ldi	r20, 0xFA	; 250
     578:	54 e4       	ldi	r21, 0x44	; 68
     57a:	69 81       	ldd	r22, Y+1	; 0x01
     57c:	7a 81       	ldd	r23, Y+2	; 0x02
     57e:	8b 81       	ldd	r24, Y+3	; 0x03
     580:	9c 81       	ldd	r25, Y+4	; 0x04
     582:	0e 94 4c 17 	call	0x2e98	; 0x2e98 <__mulsf3>
     586:	dc 01       	movw	r26, r24
     588:	cb 01       	movw	r24, r22
     58a:	8f a7       	std	Y+47, r24	; 0x2f
     58c:	98 ab       	std	Y+48, r25	; 0x30
     58e:	a9 ab       	std	Y+49, r26	; 0x31
     590:	ba ab       	std	Y+50, r27	; 0x32
     592:	20 e0       	ldi	r18, 0x00	; 0
     594:	30 e0       	ldi	r19, 0x00	; 0
     596:	40 e8       	ldi	r20, 0x80	; 128
     598:	5f e3       	ldi	r21, 0x3F	; 63
     59a:	6f a5       	ldd	r22, Y+47	; 0x2f
     59c:	78 a9       	ldd	r23, Y+48	; 0x30
     59e:	89 a9       	ldd	r24, Y+49	; 0x31
     5a0:	9a a9       	ldd	r25, Y+50	; 0x32
     5a2:	0e 94 9e 16 	call	0x2d3c	; 0x2d3c <__cmpsf2>
     5a6:	88 23       	and	r24, r24
     5a8:	2c f4       	brge	.+10     	; 0x5b4 <WriteData+0xbe>
     5aa:	81 e0       	ldi	r24, 0x01	; 1
     5ac:	90 e0       	ldi	r25, 0x00	; 0
     5ae:	9c ab       	std	Y+52, r25	; 0x34
     5b0:	8b ab       	std	Y+51, r24	; 0x33
     5b2:	3f c0       	rjmp	.+126    	; 0x632 <WriteData+0x13c>
     5b4:	20 e0       	ldi	r18, 0x00	; 0
     5b6:	3f ef       	ldi	r19, 0xFF	; 255
     5b8:	4f e7       	ldi	r20, 0x7F	; 127
     5ba:	57 e4       	ldi	r21, 0x47	; 71
     5bc:	6f a5       	ldd	r22, Y+47	; 0x2f
     5be:	78 a9       	ldd	r23, Y+48	; 0x30
     5c0:	89 a9       	ldd	r24, Y+49	; 0x31
     5c2:	9a a9       	ldd	r25, Y+50	; 0x32
     5c4:	0e 94 47 17 	call	0x2e8e	; 0x2e8e <__gesf2>
     5c8:	18 16       	cp	r1, r24
     5ca:	4c f5       	brge	.+82     	; 0x61e <WriteData+0x128>
     5cc:	20 e0       	ldi	r18, 0x00	; 0
     5ce:	30 e0       	ldi	r19, 0x00	; 0
     5d0:	40 e2       	ldi	r20, 0x20	; 32
     5d2:	51 e4       	ldi	r21, 0x41	; 65
     5d4:	69 81       	ldd	r22, Y+1	; 0x01
     5d6:	7a 81       	ldd	r23, Y+2	; 0x02
     5d8:	8b 81       	ldd	r24, Y+3	; 0x03
     5da:	9c 81       	ldd	r25, Y+4	; 0x04
     5dc:	0e 94 4c 17 	call	0x2e98	; 0x2e98 <__mulsf3>
     5e0:	dc 01       	movw	r26, r24
     5e2:	cb 01       	movw	r24, r22
     5e4:	bc 01       	movw	r22, r24
     5e6:	cd 01       	movw	r24, r26
     5e8:	0e 94 a3 16 	call	0x2d46	; 0x2d46 <__fixunssfsi>
     5ec:	dc 01       	movw	r26, r24
     5ee:	cb 01       	movw	r24, r22
     5f0:	9c ab       	std	Y+52, r25	; 0x34
     5f2:	8b ab       	std	Y+51, r24	; 0x33
     5f4:	0f c0       	rjmp	.+30     	; 0x614 <WriteData+0x11e>
     5f6:	88 ec       	ldi	r24, 0xC8	; 200
     5f8:	90 e0       	ldi	r25, 0x00	; 0
     5fa:	9e ab       	std	Y+54, r25	; 0x36
     5fc:	8d ab       	std	Y+53, r24	; 0x35
     5fe:	8d a9       	ldd	r24, Y+53	; 0x35
     600:	9e a9       	ldd	r25, Y+54	; 0x36
     602:	01 97       	sbiw	r24, 0x01	; 1
     604:	f1 f7       	brne	.-4      	; 0x602 <WriteData+0x10c>
     606:	9e ab       	std	Y+54, r25	; 0x36
     608:	8d ab       	std	Y+53, r24	; 0x35
     60a:	8b a9       	ldd	r24, Y+51	; 0x33
     60c:	9c a9       	ldd	r25, Y+52	; 0x34
     60e:	01 97       	sbiw	r24, 0x01	; 1
     610:	9c ab       	std	Y+52, r25	; 0x34
     612:	8b ab       	std	Y+51, r24	; 0x33
     614:	8b a9       	ldd	r24, Y+51	; 0x33
     616:	9c a9       	ldd	r25, Y+52	; 0x34
     618:	89 2b       	or	r24, r25
     61a:	69 f7       	brne	.-38     	; 0x5f6 <WriteData+0x100>
     61c:	14 c0       	rjmp	.+40     	; 0x646 <WriteData+0x150>
     61e:	6f a5       	ldd	r22, Y+47	; 0x2f
     620:	78 a9       	ldd	r23, Y+48	; 0x30
     622:	89 a9       	ldd	r24, Y+49	; 0x31
     624:	9a a9       	ldd	r25, Y+50	; 0x32
     626:	0e 94 a3 16 	call	0x2d46	; 0x2d46 <__fixunssfsi>
     62a:	dc 01       	movw	r26, r24
     62c:	cb 01       	movw	r24, r22
     62e:	9c ab       	std	Y+52, r25	; 0x34
     630:	8b ab       	std	Y+51, r24	; 0x33
     632:	8b a9       	ldd	r24, Y+51	; 0x33
     634:	9c a9       	ldd	r25, Y+52	; 0x34
     636:	98 af       	std	Y+56, r25	; 0x38
     638:	8f ab       	std	Y+55, r24	; 0x37
     63a:	8f a9       	ldd	r24, Y+55	; 0x37
     63c:	98 ad       	ldd	r25, Y+56	; 0x38
     63e:	01 97       	sbiw	r24, 0x01	; 1
     640:	f1 f7       	brne	.-4      	; 0x63e <WriteData+0x148>
     642:	98 af       	std	Y+56, r25	; 0x38
     644:	8f ab       	std	Y+55, r24	; 0x37
     646:	60 e0       	ldi	r22, 0x00	; 0
     648:	82 e0       	ldi	r24, 0x02	; 2
     64a:	0e 94 6b 0f 	call	0x1ed6	; 0x1ed6 <DIO_WritePin>
     64e:	80 e0       	ldi	r24, 0x00	; 0
     650:	90 e0       	ldi	r25, 0x00	; 0
     652:	a0 e8       	ldi	r26, 0x80	; 128
     654:	bf e3       	ldi	r27, 0x3F	; 63
     656:	8d 83       	std	Y+5, r24	; 0x05
     658:	9e 83       	std	Y+6, r25	; 0x06
     65a:	af 83       	std	Y+7, r26	; 0x07
     65c:	b8 87       	std	Y+8, r27	; 0x08
     65e:	20 e0       	ldi	r18, 0x00	; 0
     660:	30 e0       	ldi	r19, 0x00	; 0
     662:	4a ef       	ldi	r20, 0xFA	; 250
     664:	54 e4       	ldi	r21, 0x44	; 68
     666:	6d 81       	ldd	r22, Y+5	; 0x05
     668:	7e 81       	ldd	r23, Y+6	; 0x06
     66a:	8f 81       	ldd	r24, Y+7	; 0x07
     66c:	98 85       	ldd	r25, Y+8	; 0x08
     66e:	0e 94 4c 17 	call	0x2e98	; 0x2e98 <__mulsf3>
     672:	dc 01       	movw	r26, r24
     674:	cb 01       	movw	r24, r22
     676:	8d a3       	std	Y+37, r24	; 0x25
     678:	9e a3       	std	Y+38, r25	; 0x26
     67a:	af a3       	std	Y+39, r26	; 0x27
     67c:	b8 a7       	std	Y+40, r27	; 0x28
     67e:	20 e0       	ldi	r18, 0x00	; 0
     680:	30 e0       	ldi	r19, 0x00	; 0
     682:	40 e8       	ldi	r20, 0x80	; 128
     684:	5f e3       	ldi	r21, 0x3F	; 63
     686:	6d a1       	ldd	r22, Y+37	; 0x25
     688:	7e a1       	ldd	r23, Y+38	; 0x26
     68a:	8f a1       	ldd	r24, Y+39	; 0x27
     68c:	98 a5       	ldd	r25, Y+40	; 0x28
     68e:	0e 94 9e 16 	call	0x2d3c	; 0x2d3c <__cmpsf2>
     692:	88 23       	and	r24, r24
     694:	2c f4       	brge	.+10     	; 0x6a0 <WriteData+0x1aa>
     696:	81 e0       	ldi	r24, 0x01	; 1
     698:	90 e0       	ldi	r25, 0x00	; 0
     69a:	9a a7       	std	Y+42, r25	; 0x2a
     69c:	89 a7       	std	Y+41, r24	; 0x29
     69e:	3f c0       	rjmp	.+126    	; 0x71e <WriteData+0x228>
     6a0:	20 e0       	ldi	r18, 0x00	; 0
     6a2:	3f ef       	ldi	r19, 0xFF	; 255
     6a4:	4f e7       	ldi	r20, 0x7F	; 127
     6a6:	57 e4       	ldi	r21, 0x47	; 71
     6a8:	6d a1       	ldd	r22, Y+37	; 0x25
     6aa:	7e a1       	ldd	r23, Y+38	; 0x26
     6ac:	8f a1       	ldd	r24, Y+39	; 0x27
     6ae:	98 a5       	ldd	r25, Y+40	; 0x28
     6b0:	0e 94 47 17 	call	0x2e8e	; 0x2e8e <__gesf2>
     6b4:	18 16       	cp	r1, r24
     6b6:	4c f5       	brge	.+82     	; 0x70a <WriteData+0x214>
     6b8:	20 e0       	ldi	r18, 0x00	; 0
     6ba:	30 e0       	ldi	r19, 0x00	; 0
     6bc:	40 e2       	ldi	r20, 0x20	; 32
     6be:	51 e4       	ldi	r21, 0x41	; 65
     6c0:	6d 81       	ldd	r22, Y+5	; 0x05
     6c2:	7e 81       	ldd	r23, Y+6	; 0x06
     6c4:	8f 81       	ldd	r24, Y+7	; 0x07
     6c6:	98 85       	ldd	r25, Y+8	; 0x08
     6c8:	0e 94 4c 17 	call	0x2e98	; 0x2e98 <__mulsf3>
     6cc:	dc 01       	movw	r26, r24
     6ce:	cb 01       	movw	r24, r22
     6d0:	bc 01       	movw	r22, r24
     6d2:	cd 01       	movw	r24, r26
     6d4:	0e 94 a3 16 	call	0x2d46	; 0x2d46 <__fixunssfsi>
     6d8:	dc 01       	movw	r26, r24
     6da:	cb 01       	movw	r24, r22
     6dc:	9a a7       	std	Y+42, r25	; 0x2a
     6de:	89 a7       	std	Y+41, r24	; 0x29
     6e0:	0f c0       	rjmp	.+30     	; 0x700 <WriteData+0x20a>
     6e2:	88 ec       	ldi	r24, 0xC8	; 200
     6e4:	90 e0       	ldi	r25, 0x00	; 0
     6e6:	9c a7       	std	Y+44, r25	; 0x2c
     6e8:	8b a7       	std	Y+43, r24	; 0x2b
     6ea:	8b a5       	ldd	r24, Y+43	; 0x2b
     6ec:	9c a5       	ldd	r25, Y+44	; 0x2c
     6ee:	01 97       	sbiw	r24, 0x01	; 1
     6f0:	f1 f7       	brne	.-4      	; 0x6ee <WriteData+0x1f8>
     6f2:	9c a7       	std	Y+44, r25	; 0x2c
     6f4:	8b a7       	std	Y+43, r24	; 0x2b
     6f6:	89 a5       	ldd	r24, Y+41	; 0x29
     6f8:	9a a5       	ldd	r25, Y+42	; 0x2a
     6fa:	01 97       	sbiw	r24, 0x01	; 1
     6fc:	9a a7       	std	Y+42, r25	; 0x2a
     6fe:	89 a7       	std	Y+41, r24	; 0x29
     700:	89 a5       	ldd	r24, Y+41	; 0x29
     702:	9a a5       	ldd	r25, Y+42	; 0x2a
     704:	89 2b       	or	r24, r25
     706:	69 f7       	brne	.-38     	; 0x6e2 <WriteData+0x1ec>
     708:	14 c0       	rjmp	.+40     	; 0x732 <WriteData+0x23c>
     70a:	6d a1       	ldd	r22, Y+37	; 0x25
     70c:	7e a1       	ldd	r23, Y+38	; 0x26
     70e:	8f a1       	ldd	r24, Y+39	; 0x27
     710:	98 a5       	ldd	r25, Y+40	; 0x28
     712:	0e 94 a3 16 	call	0x2d46	; 0x2d46 <__fixunssfsi>
     716:	dc 01       	movw	r26, r24
     718:	cb 01       	movw	r24, r22
     71a:	9a a7       	std	Y+42, r25	; 0x2a
     71c:	89 a7       	std	Y+41, r24	; 0x29
     71e:	89 a5       	ldd	r24, Y+41	; 0x29
     720:	9a a5       	ldd	r25, Y+42	; 0x2a
     722:	9e a7       	std	Y+46, r25	; 0x2e
     724:	8d a7       	std	Y+45, r24	; 0x2d
     726:	8d a5       	ldd	r24, Y+45	; 0x2d
     728:	9e a5       	ldd	r25, Y+46	; 0x2e
     72a:	01 97       	sbiw	r24, 0x01	; 1
     72c:	f1 f7       	brne	.-4      	; 0x72a <WriteData+0x234>
     72e:	9e a7       	std	Y+46, r25	; 0x2e
     730:	8d a7       	std	Y+45, r24	; 0x2d
     732:	89 ad       	ldd	r24, Y+57	; 0x39
     734:	86 95       	lsr	r24
     736:	86 95       	lsr	r24
     738:	86 95       	lsr	r24
     73a:	81 70       	andi	r24, 0x01	; 1
     73c:	68 2f       	mov	r22, r24
     73e:	86 e0       	ldi	r24, 0x06	; 6
     740:	0e 94 6b 0f 	call	0x1ed6	; 0x1ed6 <DIO_WritePin>
     744:	89 ad       	ldd	r24, Y+57	; 0x39
     746:	86 95       	lsr	r24
     748:	86 95       	lsr	r24
     74a:	81 70       	andi	r24, 0x01	; 1
     74c:	68 2f       	mov	r22, r24
     74e:	85 e0       	ldi	r24, 0x05	; 5
     750:	0e 94 6b 0f 	call	0x1ed6	; 0x1ed6 <DIO_WritePin>
     754:	89 ad       	ldd	r24, Y+57	; 0x39
     756:	86 95       	lsr	r24
     758:	81 70       	andi	r24, 0x01	; 1
     75a:	68 2f       	mov	r22, r24
     75c:	84 e0       	ldi	r24, 0x04	; 4
     75e:	0e 94 6b 0f 	call	0x1ed6	; 0x1ed6 <DIO_WritePin>
     762:	89 ad       	ldd	r24, Y+57	; 0x39
     764:	81 70       	andi	r24, 0x01	; 1
     766:	68 2f       	mov	r22, r24
     768:	83 e0       	ldi	r24, 0x03	; 3
     76a:	0e 94 6b 0f 	call	0x1ed6	; 0x1ed6 <DIO_WritePin>
     76e:	61 e0       	ldi	r22, 0x01	; 1
     770:	82 e0       	ldi	r24, 0x02	; 2
     772:	0e 94 6b 0f 	call	0x1ed6	; 0x1ed6 <DIO_WritePin>
     776:	80 e0       	ldi	r24, 0x00	; 0
     778:	90 e0       	ldi	r25, 0x00	; 0
     77a:	a0 e8       	ldi	r26, 0x80	; 128
     77c:	bf e3       	ldi	r27, 0x3F	; 63
     77e:	89 87       	std	Y+9, r24	; 0x09
     780:	9a 87       	std	Y+10, r25	; 0x0a
     782:	ab 87       	std	Y+11, r26	; 0x0b
     784:	bc 87       	std	Y+12, r27	; 0x0c
     786:	20 e0       	ldi	r18, 0x00	; 0
     788:	30 e0       	ldi	r19, 0x00	; 0
     78a:	4a ef       	ldi	r20, 0xFA	; 250
     78c:	54 e4       	ldi	r21, 0x44	; 68
     78e:	69 85       	ldd	r22, Y+9	; 0x09
     790:	7a 85       	ldd	r23, Y+10	; 0x0a
     792:	8b 85       	ldd	r24, Y+11	; 0x0b
     794:	9c 85       	ldd	r25, Y+12	; 0x0c
     796:	0e 94 4c 17 	call	0x2e98	; 0x2e98 <__mulsf3>
     79a:	dc 01       	movw	r26, r24
     79c:	cb 01       	movw	r24, r22
     79e:	8b 8f       	std	Y+27, r24	; 0x1b
     7a0:	9c 8f       	std	Y+28, r25	; 0x1c
     7a2:	ad 8f       	std	Y+29, r26	; 0x1d
     7a4:	be 8f       	std	Y+30, r27	; 0x1e
     7a6:	20 e0       	ldi	r18, 0x00	; 0
     7a8:	30 e0       	ldi	r19, 0x00	; 0
     7aa:	40 e8       	ldi	r20, 0x80	; 128
     7ac:	5f e3       	ldi	r21, 0x3F	; 63
     7ae:	6b 8d       	ldd	r22, Y+27	; 0x1b
     7b0:	7c 8d       	ldd	r23, Y+28	; 0x1c
     7b2:	8d 8d       	ldd	r24, Y+29	; 0x1d
     7b4:	9e 8d       	ldd	r25, Y+30	; 0x1e
     7b6:	0e 94 9e 16 	call	0x2d3c	; 0x2d3c <__cmpsf2>
     7ba:	88 23       	and	r24, r24
     7bc:	2c f4       	brge	.+10     	; 0x7c8 <WriteData+0x2d2>
     7be:	81 e0       	ldi	r24, 0x01	; 1
     7c0:	90 e0       	ldi	r25, 0x00	; 0
     7c2:	98 a3       	std	Y+32, r25	; 0x20
     7c4:	8f 8f       	std	Y+31, r24	; 0x1f
     7c6:	3f c0       	rjmp	.+126    	; 0x846 <__DATA_REGION_LENGTH__+0x46>
     7c8:	20 e0       	ldi	r18, 0x00	; 0
     7ca:	3f ef       	ldi	r19, 0xFF	; 255
     7cc:	4f e7       	ldi	r20, 0x7F	; 127
     7ce:	57 e4       	ldi	r21, 0x47	; 71
     7d0:	6b 8d       	ldd	r22, Y+27	; 0x1b
     7d2:	7c 8d       	ldd	r23, Y+28	; 0x1c
     7d4:	8d 8d       	ldd	r24, Y+29	; 0x1d
     7d6:	9e 8d       	ldd	r25, Y+30	; 0x1e
     7d8:	0e 94 47 17 	call	0x2e8e	; 0x2e8e <__gesf2>
     7dc:	18 16       	cp	r1, r24
     7de:	4c f5       	brge	.+82     	; 0x832 <__DATA_REGION_LENGTH__+0x32>
     7e0:	20 e0       	ldi	r18, 0x00	; 0
     7e2:	30 e0       	ldi	r19, 0x00	; 0
     7e4:	40 e2       	ldi	r20, 0x20	; 32
     7e6:	51 e4       	ldi	r21, 0x41	; 65
     7e8:	69 85       	ldd	r22, Y+9	; 0x09
     7ea:	7a 85       	ldd	r23, Y+10	; 0x0a
     7ec:	8b 85       	ldd	r24, Y+11	; 0x0b
     7ee:	9c 85       	ldd	r25, Y+12	; 0x0c
     7f0:	0e 94 4c 17 	call	0x2e98	; 0x2e98 <__mulsf3>
     7f4:	dc 01       	movw	r26, r24
     7f6:	cb 01       	movw	r24, r22
     7f8:	bc 01       	movw	r22, r24
     7fa:	cd 01       	movw	r24, r26
     7fc:	0e 94 a3 16 	call	0x2d46	; 0x2d46 <__fixunssfsi>
     800:	dc 01       	movw	r26, r24
     802:	cb 01       	movw	r24, r22
     804:	98 a3       	std	Y+32, r25	; 0x20
     806:	8f 8f       	std	Y+31, r24	; 0x1f
     808:	0f c0       	rjmp	.+30     	; 0x828 <__DATA_REGION_LENGTH__+0x28>
     80a:	88 ec       	ldi	r24, 0xC8	; 200
     80c:	90 e0       	ldi	r25, 0x00	; 0
     80e:	9a a3       	std	Y+34, r25	; 0x22
     810:	89 a3       	std	Y+33, r24	; 0x21
     812:	89 a1       	ldd	r24, Y+33	; 0x21
     814:	9a a1       	ldd	r25, Y+34	; 0x22
     816:	01 97       	sbiw	r24, 0x01	; 1
     818:	f1 f7       	brne	.-4      	; 0x816 <__DATA_REGION_LENGTH__+0x16>
     81a:	9a a3       	std	Y+34, r25	; 0x22
     81c:	89 a3       	std	Y+33, r24	; 0x21
     81e:	8f 8d       	ldd	r24, Y+31	; 0x1f
     820:	98 a1       	ldd	r25, Y+32	; 0x20
     822:	01 97       	sbiw	r24, 0x01	; 1
     824:	98 a3       	std	Y+32, r25	; 0x20
     826:	8f 8f       	std	Y+31, r24	; 0x1f
     828:	8f 8d       	ldd	r24, Y+31	; 0x1f
     82a:	98 a1       	ldd	r25, Y+32	; 0x20
     82c:	89 2b       	or	r24, r25
     82e:	69 f7       	brne	.-38     	; 0x80a <__DATA_REGION_LENGTH__+0xa>
     830:	14 c0       	rjmp	.+40     	; 0x85a <__DATA_REGION_LENGTH__+0x5a>
     832:	6b 8d       	ldd	r22, Y+27	; 0x1b
     834:	7c 8d       	ldd	r23, Y+28	; 0x1c
     836:	8d 8d       	ldd	r24, Y+29	; 0x1d
     838:	9e 8d       	ldd	r25, Y+30	; 0x1e
     83a:	0e 94 a3 16 	call	0x2d46	; 0x2d46 <__fixunssfsi>
     83e:	dc 01       	movw	r26, r24
     840:	cb 01       	movw	r24, r22
     842:	98 a3       	std	Y+32, r25	; 0x20
     844:	8f 8f       	std	Y+31, r24	; 0x1f
     846:	8f 8d       	ldd	r24, Y+31	; 0x1f
     848:	98 a1       	ldd	r25, Y+32	; 0x20
     84a:	9c a3       	std	Y+36, r25	; 0x24
     84c:	8b a3       	std	Y+35, r24	; 0x23
     84e:	8b a1       	ldd	r24, Y+35	; 0x23
     850:	9c a1       	ldd	r25, Y+36	; 0x24
     852:	01 97       	sbiw	r24, 0x01	; 1
     854:	f1 f7       	brne	.-4      	; 0x852 <__DATA_REGION_LENGTH__+0x52>
     856:	9c a3       	std	Y+36, r25	; 0x24
     858:	8b a3       	std	Y+35, r24	; 0x23
     85a:	60 e0       	ldi	r22, 0x00	; 0
     85c:	82 e0       	ldi	r24, 0x02	; 2
     85e:	0e 94 6b 0f 	call	0x1ed6	; 0x1ed6 <DIO_WritePin>
     862:	80 e0       	ldi	r24, 0x00	; 0
     864:	90 e0       	ldi	r25, 0x00	; 0
     866:	a0 e8       	ldi	r26, 0x80	; 128
     868:	bf e3       	ldi	r27, 0x3F	; 63
     86a:	8d 87       	std	Y+13, r24	; 0x0d
     86c:	9e 87       	std	Y+14, r25	; 0x0e
     86e:	af 87       	std	Y+15, r26	; 0x0f
     870:	b8 8b       	std	Y+16, r27	; 0x10
     872:	20 e0       	ldi	r18, 0x00	; 0
     874:	30 e0       	ldi	r19, 0x00	; 0
     876:	4a ef       	ldi	r20, 0xFA	; 250
     878:	54 e4       	ldi	r21, 0x44	; 68
     87a:	6d 85       	ldd	r22, Y+13	; 0x0d
     87c:	7e 85       	ldd	r23, Y+14	; 0x0e
     87e:	8f 85       	ldd	r24, Y+15	; 0x0f
     880:	98 89       	ldd	r25, Y+16	; 0x10
     882:	0e 94 4c 17 	call	0x2e98	; 0x2e98 <__mulsf3>
     886:	dc 01       	movw	r26, r24
     888:	cb 01       	movw	r24, r22
     88a:	89 8b       	std	Y+17, r24	; 0x11
     88c:	9a 8b       	std	Y+18, r25	; 0x12
     88e:	ab 8b       	std	Y+19, r26	; 0x13
     890:	bc 8b       	std	Y+20, r27	; 0x14
     892:	20 e0       	ldi	r18, 0x00	; 0
     894:	30 e0       	ldi	r19, 0x00	; 0
     896:	40 e8       	ldi	r20, 0x80	; 128
     898:	5f e3       	ldi	r21, 0x3F	; 63
     89a:	69 89       	ldd	r22, Y+17	; 0x11
     89c:	7a 89       	ldd	r23, Y+18	; 0x12
     89e:	8b 89       	ldd	r24, Y+19	; 0x13
     8a0:	9c 89       	ldd	r25, Y+20	; 0x14
     8a2:	0e 94 9e 16 	call	0x2d3c	; 0x2d3c <__cmpsf2>
     8a6:	88 23       	and	r24, r24
     8a8:	2c f4       	brge	.+10     	; 0x8b4 <__stack+0x55>
     8aa:	81 e0       	ldi	r24, 0x01	; 1
     8ac:	90 e0       	ldi	r25, 0x00	; 0
     8ae:	9e 8b       	std	Y+22, r25	; 0x16
     8b0:	8d 8b       	std	Y+21, r24	; 0x15
     8b2:	3f c0       	rjmp	.+126    	; 0x932 <__stack+0xd3>
     8b4:	20 e0       	ldi	r18, 0x00	; 0
     8b6:	3f ef       	ldi	r19, 0xFF	; 255
     8b8:	4f e7       	ldi	r20, 0x7F	; 127
     8ba:	57 e4       	ldi	r21, 0x47	; 71
     8bc:	69 89       	ldd	r22, Y+17	; 0x11
     8be:	7a 89       	ldd	r23, Y+18	; 0x12
     8c0:	8b 89       	ldd	r24, Y+19	; 0x13
     8c2:	9c 89       	ldd	r25, Y+20	; 0x14
     8c4:	0e 94 47 17 	call	0x2e8e	; 0x2e8e <__gesf2>
     8c8:	18 16       	cp	r1, r24
     8ca:	4c f5       	brge	.+82     	; 0x91e <__stack+0xbf>
     8cc:	20 e0       	ldi	r18, 0x00	; 0
     8ce:	30 e0       	ldi	r19, 0x00	; 0
     8d0:	40 e2       	ldi	r20, 0x20	; 32
     8d2:	51 e4       	ldi	r21, 0x41	; 65
     8d4:	6d 85       	ldd	r22, Y+13	; 0x0d
     8d6:	7e 85       	ldd	r23, Y+14	; 0x0e
     8d8:	8f 85       	ldd	r24, Y+15	; 0x0f
     8da:	98 89       	ldd	r25, Y+16	; 0x10
     8dc:	0e 94 4c 17 	call	0x2e98	; 0x2e98 <__mulsf3>
     8e0:	dc 01       	movw	r26, r24
     8e2:	cb 01       	movw	r24, r22
     8e4:	bc 01       	movw	r22, r24
     8e6:	cd 01       	movw	r24, r26
     8e8:	0e 94 a3 16 	call	0x2d46	; 0x2d46 <__fixunssfsi>
     8ec:	dc 01       	movw	r26, r24
     8ee:	cb 01       	movw	r24, r22
     8f0:	9e 8b       	std	Y+22, r25	; 0x16
     8f2:	8d 8b       	std	Y+21, r24	; 0x15
     8f4:	0f c0       	rjmp	.+30     	; 0x914 <__stack+0xb5>
     8f6:	88 ec       	ldi	r24, 0xC8	; 200
     8f8:	90 e0       	ldi	r25, 0x00	; 0
     8fa:	98 8f       	std	Y+24, r25	; 0x18
     8fc:	8f 8b       	std	Y+23, r24	; 0x17
     8fe:	8f 89       	ldd	r24, Y+23	; 0x17
     900:	98 8d       	ldd	r25, Y+24	; 0x18
     902:	01 97       	sbiw	r24, 0x01	; 1
     904:	f1 f7       	brne	.-4      	; 0x902 <__stack+0xa3>
     906:	98 8f       	std	Y+24, r25	; 0x18
     908:	8f 8b       	std	Y+23, r24	; 0x17
     90a:	8d 89       	ldd	r24, Y+21	; 0x15
     90c:	9e 89       	ldd	r25, Y+22	; 0x16
     90e:	01 97       	sbiw	r24, 0x01	; 1
     910:	9e 8b       	std	Y+22, r25	; 0x16
     912:	8d 8b       	std	Y+21, r24	; 0x15
     914:	8d 89       	ldd	r24, Y+21	; 0x15
     916:	9e 89       	ldd	r25, Y+22	; 0x16
     918:	89 2b       	or	r24, r25
     91a:	69 f7       	brne	.-38     	; 0x8f6 <__stack+0x97>
     91c:	14 c0       	rjmp	.+40     	; 0x946 <__stack+0xe7>
     91e:	69 89       	ldd	r22, Y+17	; 0x11
     920:	7a 89       	ldd	r23, Y+18	; 0x12
     922:	8b 89       	ldd	r24, Y+19	; 0x13
     924:	9c 89       	ldd	r25, Y+20	; 0x14
     926:	0e 94 a3 16 	call	0x2d46	; 0x2d46 <__fixunssfsi>
     92a:	dc 01       	movw	r26, r24
     92c:	cb 01       	movw	r24, r22
     92e:	9e 8b       	std	Y+22, r25	; 0x16
     930:	8d 8b       	std	Y+21, r24	; 0x15
     932:	8d 89       	ldd	r24, Y+21	; 0x15
     934:	9e 89       	ldd	r25, Y+22	; 0x16
     936:	9a 8f       	std	Y+26, r25	; 0x1a
     938:	89 8f       	std	Y+25, r24	; 0x19
     93a:	89 8d       	ldd	r24, Y+25	; 0x19
     93c:	9a 8d       	ldd	r25, Y+26	; 0x1a
     93e:	01 97       	sbiw	r24, 0x01	; 1
     940:	f1 f7       	brne	.-4      	; 0x93e <__stack+0xdf>
     942:	9a 8f       	std	Y+26, r25	; 0x1a
     944:	89 8f       	std	Y+25, r24	; 0x19
     946:	00 00       	nop
     948:	e9 96       	adiw	r28, 0x39	; 57
     94a:	0f b6       	in	r0, 0x3f	; 63
     94c:	f8 94       	cli
     94e:	de bf       	out	0x3e, r29	; 62
     950:	0f be       	out	0x3f, r0	; 63
     952:	cd bf       	out	0x3d, r28	; 61
     954:	df 91       	pop	r29
     956:	cf 91       	pop	r28
     958:	08 95       	ret

0000095a <LCD_Init>:
     95a:	cf 93       	push	r28
     95c:	df 93       	push	r29
     95e:	cd b7       	in	r28, 0x3d	; 61
     960:	de b7       	in	r29, 0x3e	; 62
     962:	6c 97       	sbiw	r28, 0x1c	; 28
     964:	0f b6       	in	r0, 0x3f	; 63
     966:	f8 94       	cli
     968:	de bf       	out	0x3e, r29	; 62
     96a:	0f be       	out	0x3f, r0	; 63
     96c:	cd bf       	out	0x3d, r28	; 61
     96e:	80 e0       	ldi	r24, 0x00	; 0
     970:	90 e0       	ldi	r25, 0x00	; 0
     972:	a8 e4       	ldi	r26, 0x48	; 72
     974:	b2 e4       	ldi	r27, 0x42	; 66
     976:	89 83       	std	Y+1, r24	; 0x01
     978:	9a 83       	std	Y+2, r25	; 0x02
     97a:	ab 83       	std	Y+3, r26	; 0x03
     97c:	bc 83       	std	Y+4, r27	; 0x04
     97e:	20 e0       	ldi	r18, 0x00	; 0
     980:	30 e0       	ldi	r19, 0x00	; 0
     982:	4a ef       	ldi	r20, 0xFA	; 250
     984:	54 e4       	ldi	r21, 0x44	; 68
     986:	69 81       	ldd	r22, Y+1	; 0x01
     988:	7a 81       	ldd	r23, Y+2	; 0x02
     98a:	8b 81       	ldd	r24, Y+3	; 0x03
     98c:	9c 81       	ldd	r25, Y+4	; 0x04
     98e:	0e 94 4c 17 	call	0x2e98	; 0x2e98 <__mulsf3>
     992:	dc 01       	movw	r26, r24
     994:	cb 01       	movw	r24, r22
     996:	8b 8b       	std	Y+19, r24	; 0x13
     998:	9c 8b       	std	Y+20, r25	; 0x14
     99a:	ad 8b       	std	Y+21, r26	; 0x15
     99c:	be 8b       	std	Y+22, r27	; 0x16
     99e:	20 e0       	ldi	r18, 0x00	; 0
     9a0:	30 e0       	ldi	r19, 0x00	; 0
     9a2:	40 e8       	ldi	r20, 0x80	; 128
     9a4:	5f e3       	ldi	r21, 0x3F	; 63
     9a6:	6b 89       	ldd	r22, Y+19	; 0x13
     9a8:	7c 89       	ldd	r23, Y+20	; 0x14
     9aa:	8d 89       	ldd	r24, Y+21	; 0x15
     9ac:	9e 89       	ldd	r25, Y+22	; 0x16
     9ae:	0e 94 9e 16 	call	0x2d3c	; 0x2d3c <__cmpsf2>
     9b2:	88 23       	and	r24, r24
     9b4:	2c f4       	brge	.+10     	; 0x9c0 <LCD_Init+0x66>
     9b6:	81 e0       	ldi	r24, 0x01	; 1
     9b8:	90 e0       	ldi	r25, 0x00	; 0
     9ba:	98 8f       	std	Y+24, r25	; 0x18
     9bc:	8f 8b       	std	Y+23, r24	; 0x17
     9be:	3f c0       	rjmp	.+126    	; 0xa3e <LCD_Init+0xe4>
     9c0:	20 e0       	ldi	r18, 0x00	; 0
     9c2:	3f ef       	ldi	r19, 0xFF	; 255
     9c4:	4f e7       	ldi	r20, 0x7F	; 127
     9c6:	57 e4       	ldi	r21, 0x47	; 71
     9c8:	6b 89       	ldd	r22, Y+19	; 0x13
     9ca:	7c 89       	ldd	r23, Y+20	; 0x14
     9cc:	8d 89       	ldd	r24, Y+21	; 0x15
     9ce:	9e 89       	ldd	r25, Y+22	; 0x16
     9d0:	0e 94 47 17 	call	0x2e8e	; 0x2e8e <__gesf2>
     9d4:	18 16       	cp	r1, r24
     9d6:	4c f5       	brge	.+82     	; 0xa2a <LCD_Init+0xd0>
     9d8:	20 e0       	ldi	r18, 0x00	; 0
     9da:	30 e0       	ldi	r19, 0x00	; 0
     9dc:	40 e2       	ldi	r20, 0x20	; 32
     9de:	51 e4       	ldi	r21, 0x41	; 65
     9e0:	69 81       	ldd	r22, Y+1	; 0x01
     9e2:	7a 81       	ldd	r23, Y+2	; 0x02
     9e4:	8b 81       	ldd	r24, Y+3	; 0x03
     9e6:	9c 81       	ldd	r25, Y+4	; 0x04
     9e8:	0e 94 4c 17 	call	0x2e98	; 0x2e98 <__mulsf3>
     9ec:	dc 01       	movw	r26, r24
     9ee:	cb 01       	movw	r24, r22
     9f0:	bc 01       	movw	r22, r24
     9f2:	cd 01       	movw	r24, r26
     9f4:	0e 94 a3 16 	call	0x2d46	; 0x2d46 <__fixunssfsi>
     9f8:	dc 01       	movw	r26, r24
     9fa:	cb 01       	movw	r24, r22
     9fc:	98 8f       	std	Y+24, r25	; 0x18
     9fe:	8f 8b       	std	Y+23, r24	; 0x17
     a00:	0f c0       	rjmp	.+30     	; 0xa20 <LCD_Init+0xc6>
     a02:	88 ec       	ldi	r24, 0xC8	; 200
     a04:	90 e0       	ldi	r25, 0x00	; 0
     a06:	9a 8f       	std	Y+26, r25	; 0x1a
     a08:	89 8f       	std	Y+25, r24	; 0x19
     a0a:	89 8d       	ldd	r24, Y+25	; 0x19
     a0c:	9a 8d       	ldd	r25, Y+26	; 0x1a
     a0e:	01 97       	sbiw	r24, 0x01	; 1
     a10:	f1 f7       	brne	.-4      	; 0xa0e <LCD_Init+0xb4>
     a12:	9a 8f       	std	Y+26, r25	; 0x1a
     a14:	89 8f       	std	Y+25, r24	; 0x19
     a16:	8f 89       	ldd	r24, Y+23	; 0x17
     a18:	98 8d       	ldd	r25, Y+24	; 0x18
     a1a:	01 97       	sbiw	r24, 0x01	; 1
     a1c:	98 8f       	std	Y+24, r25	; 0x18
     a1e:	8f 8b       	std	Y+23, r24	; 0x17
     a20:	8f 89       	ldd	r24, Y+23	; 0x17
     a22:	98 8d       	ldd	r25, Y+24	; 0x18
     a24:	89 2b       	or	r24, r25
     a26:	69 f7       	brne	.-38     	; 0xa02 <LCD_Init+0xa8>
     a28:	14 c0       	rjmp	.+40     	; 0xa52 <LCD_Init+0xf8>
     a2a:	6b 89       	ldd	r22, Y+19	; 0x13
     a2c:	7c 89       	ldd	r23, Y+20	; 0x14
     a2e:	8d 89       	ldd	r24, Y+21	; 0x15
     a30:	9e 89       	ldd	r25, Y+22	; 0x16
     a32:	0e 94 a3 16 	call	0x2d46	; 0x2d46 <__fixunssfsi>
     a36:	dc 01       	movw	r26, r24
     a38:	cb 01       	movw	r24, r22
     a3a:	98 8f       	std	Y+24, r25	; 0x18
     a3c:	8f 8b       	std	Y+23, r24	; 0x17
     a3e:	8f 89       	ldd	r24, Y+23	; 0x17
     a40:	98 8d       	ldd	r25, Y+24	; 0x18
     a42:	9c 8f       	std	Y+28, r25	; 0x1c
     a44:	8b 8f       	std	Y+27, r24	; 0x1b
     a46:	8b 8d       	ldd	r24, Y+27	; 0x1b
     a48:	9c 8d       	ldd	r25, Y+28	; 0x1c
     a4a:	01 97       	sbiw	r24, 0x01	; 1
     a4c:	f1 f7       	brne	.-4      	; 0xa4a <LCD_Init+0xf0>
     a4e:	9c 8f       	std	Y+28, r25	; 0x1c
     a50:	8b 8f       	std	Y+27, r24	; 0x1b
     a52:	82 e0       	ldi	r24, 0x02	; 2
     a54:	0e 94 49 00 	call	0x92	; 0x92 <WriteIns>
     a58:	88 e2       	ldi	r24, 0x28	; 40
     a5a:	0e 94 49 00 	call	0x92	; 0x92 <WriteIns>
     a5e:	8e e0       	ldi	r24, 0x0E	; 14
     a60:	0e 94 49 00 	call	0x92	; 0x92 <WriteIns>
     a64:	81 e0       	ldi	r24, 0x01	; 1
     a66:	0e 94 49 00 	call	0x92	; 0x92 <WriteIns>
     a6a:	80 e0       	ldi	r24, 0x00	; 0
     a6c:	90 e0       	ldi	r25, 0x00	; 0
     a6e:	a0 e8       	ldi	r26, 0x80	; 128
     a70:	bf e3       	ldi	r27, 0x3F	; 63
     a72:	8d 83       	std	Y+5, r24	; 0x05
     a74:	9e 83       	std	Y+6, r25	; 0x06
     a76:	af 83       	std	Y+7, r26	; 0x07
     a78:	b8 87       	std	Y+8, r27	; 0x08
     a7a:	20 e0       	ldi	r18, 0x00	; 0
     a7c:	30 e0       	ldi	r19, 0x00	; 0
     a7e:	4a ef       	ldi	r20, 0xFA	; 250
     a80:	54 e4       	ldi	r21, 0x44	; 68
     a82:	6d 81       	ldd	r22, Y+5	; 0x05
     a84:	7e 81       	ldd	r23, Y+6	; 0x06
     a86:	8f 81       	ldd	r24, Y+7	; 0x07
     a88:	98 85       	ldd	r25, Y+8	; 0x08
     a8a:	0e 94 4c 17 	call	0x2e98	; 0x2e98 <__mulsf3>
     a8e:	dc 01       	movw	r26, r24
     a90:	cb 01       	movw	r24, r22
     a92:	89 87       	std	Y+9, r24	; 0x09
     a94:	9a 87       	std	Y+10, r25	; 0x0a
     a96:	ab 87       	std	Y+11, r26	; 0x0b
     a98:	bc 87       	std	Y+12, r27	; 0x0c
     a9a:	20 e0       	ldi	r18, 0x00	; 0
     a9c:	30 e0       	ldi	r19, 0x00	; 0
     a9e:	40 e8       	ldi	r20, 0x80	; 128
     aa0:	5f e3       	ldi	r21, 0x3F	; 63
     aa2:	69 85       	ldd	r22, Y+9	; 0x09
     aa4:	7a 85       	ldd	r23, Y+10	; 0x0a
     aa6:	8b 85       	ldd	r24, Y+11	; 0x0b
     aa8:	9c 85       	ldd	r25, Y+12	; 0x0c
     aaa:	0e 94 9e 16 	call	0x2d3c	; 0x2d3c <__cmpsf2>
     aae:	88 23       	and	r24, r24
     ab0:	2c f4       	brge	.+10     	; 0xabc <LCD_Init+0x162>
     ab2:	81 e0       	ldi	r24, 0x01	; 1
     ab4:	90 e0       	ldi	r25, 0x00	; 0
     ab6:	9e 87       	std	Y+14, r25	; 0x0e
     ab8:	8d 87       	std	Y+13, r24	; 0x0d
     aba:	3f c0       	rjmp	.+126    	; 0xb3a <LCD_Init+0x1e0>
     abc:	20 e0       	ldi	r18, 0x00	; 0
     abe:	3f ef       	ldi	r19, 0xFF	; 255
     ac0:	4f e7       	ldi	r20, 0x7F	; 127
     ac2:	57 e4       	ldi	r21, 0x47	; 71
     ac4:	69 85       	ldd	r22, Y+9	; 0x09
     ac6:	7a 85       	ldd	r23, Y+10	; 0x0a
     ac8:	8b 85       	ldd	r24, Y+11	; 0x0b
     aca:	9c 85       	ldd	r25, Y+12	; 0x0c
     acc:	0e 94 47 17 	call	0x2e8e	; 0x2e8e <__gesf2>
     ad0:	18 16       	cp	r1, r24
     ad2:	4c f5       	brge	.+82     	; 0xb26 <LCD_Init+0x1cc>
     ad4:	20 e0       	ldi	r18, 0x00	; 0
     ad6:	30 e0       	ldi	r19, 0x00	; 0
     ad8:	40 e2       	ldi	r20, 0x20	; 32
     ada:	51 e4       	ldi	r21, 0x41	; 65
     adc:	6d 81       	ldd	r22, Y+5	; 0x05
     ade:	7e 81       	ldd	r23, Y+6	; 0x06
     ae0:	8f 81       	ldd	r24, Y+7	; 0x07
     ae2:	98 85       	ldd	r25, Y+8	; 0x08
     ae4:	0e 94 4c 17 	call	0x2e98	; 0x2e98 <__mulsf3>
     ae8:	dc 01       	movw	r26, r24
     aea:	cb 01       	movw	r24, r22
     aec:	bc 01       	movw	r22, r24
     aee:	cd 01       	movw	r24, r26
     af0:	0e 94 a3 16 	call	0x2d46	; 0x2d46 <__fixunssfsi>
     af4:	dc 01       	movw	r26, r24
     af6:	cb 01       	movw	r24, r22
     af8:	9e 87       	std	Y+14, r25	; 0x0e
     afa:	8d 87       	std	Y+13, r24	; 0x0d
     afc:	0f c0       	rjmp	.+30     	; 0xb1c <LCD_Init+0x1c2>
     afe:	88 ec       	ldi	r24, 0xC8	; 200
     b00:	90 e0       	ldi	r25, 0x00	; 0
     b02:	98 8b       	std	Y+16, r25	; 0x10
     b04:	8f 87       	std	Y+15, r24	; 0x0f
     b06:	8f 85       	ldd	r24, Y+15	; 0x0f
     b08:	98 89       	ldd	r25, Y+16	; 0x10
     b0a:	01 97       	sbiw	r24, 0x01	; 1
     b0c:	f1 f7       	brne	.-4      	; 0xb0a <LCD_Init+0x1b0>
     b0e:	98 8b       	std	Y+16, r25	; 0x10
     b10:	8f 87       	std	Y+15, r24	; 0x0f
     b12:	8d 85       	ldd	r24, Y+13	; 0x0d
     b14:	9e 85       	ldd	r25, Y+14	; 0x0e
     b16:	01 97       	sbiw	r24, 0x01	; 1
     b18:	9e 87       	std	Y+14, r25	; 0x0e
     b1a:	8d 87       	std	Y+13, r24	; 0x0d
     b1c:	8d 85       	ldd	r24, Y+13	; 0x0d
     b1e:	9e 85       	ldd	r25, Y+14	; 0x0e
     b20:	89 2b       	or	r24, r25
     b22:	69 f7       	brne	.-38     	; 0xafe <LCD_Init+0x1a4>
     b24:	14 c0       	rjmp	.+40     	; 0xb4e <LCD_Init+0x1f4>
     b26:	69 85       	ldd	r22, Y+9	; 0x09
     b28:	7a 85       	ldd	r23, Y+10	; 0x0a
     b2a:	8b 85       	ldd	r24, Y+11	; 0x0b
     b2c:	9c 85       	ldd	r25, Y+12	; 0x0c
     b2e:	0e 94 a3 16 	call	0x2d46	; 0x2d46 <__fixunssfsi>
     b32:	dc 01       	movw	r26, r24
     b34:	cb 01       	movw	r24, r22
     b36:	9e 87       	std	Y+14, r25	; 0x0e
     b38:	8d 87       	std	Y+13, r24	; 0x0d
     b3a:	8d 85       	ldd	r24, Y+13	; 0x0d
     b3c:	9e 85       	ldd	r25, Y+14	; 0x0e
     b3e:	9a 8b       	std	Y+18, r25	; 0x12
     b40:	89 8b       	std	Y+17, r24	; 0x11
     b42:	89 89       	ldd	r24, Y+17	; 0x11
     b44:	9a 89       	ldd	r25, Y+18	; 0x12
     b46:	01 97       	sbiw	r24, 0x01	; 1
     b48:	f1 f7       	brne	.-4      	; 0xb46 <LCD_Init+0x1ec>
     b4a:	9a 8b       	std	Y+18, r25	; 0x12
     b4c:	89 8b       	std	Y+17, r24	; 0x11
     b4e:	86 e0       	ldi	r24, 0x06	; 6
     b50:	0e 94 49 00 	call	0x92	; 0x92 <WriteIns>
     b54:	00 00       	nop
     b56:	6c 96       	adiw	r28, 0x1c	; 28
     b58:	0f b6       	in	r0, 0x3f	; 63
     b5a:	f8 94       	cli
     b5c:	de bf       	out	0x3e, r29	; 62
     b5e:	0f be       	out	0x3f, r0	; 63
     b60:	cd bf       	out	0x3d, r28	; 61
     b62:	df 91       	pop	r29
     b64:	cf 91       	pop	r28
     b66:	08 95       	ret

00000b68 <LCD_WriteChar>:
     b68:	cf 93       	push	r28
     b6a:	df 93       	push	r29
     b6c:	1f 92       	push	r1
     b6e:	cd b7       	in	r28, 0x3d	; 61
     b70:	de b7       	in	r29, 0x3e	; 62
     b72:	89 83       	std	Y+1, r24	; 0x01
     b74:	89 81       	ldd	r24, Y+1	; 0x01
     b76:	0e 94 7b 02 	call	0x4f6	; 0x4f6 <WriteData>
     b7a:	00 00       	nop
     b7c:	0f 90       	pop	r0
     b7e:	df 91       	pop	r29
     b80:	cf 91       	pop	r28
     b82:	08 95       	ret

00000b84 <LCD_Clear>:
     b84:	cf 93       	push	r28
     b86:	df 93       	push	r29
     b88:	cd b7       	in	r28, 0x3d	; 61
     b8a:	de b7       	in	r29, 0x3e	; 62
     b8c:	2e 97       	sbiw	r28, 0x0e	; 14
     b8e:	0f b6       	in	r0, 0x3f	; 63
     b90:	f8 94       	cli
     b92:	de bf       	out	0x3e, r29	; 62
     b94:	0f be       	out	0x3f, r0	; 63
     b96:	cd bf       	out	0x3d, r28	; 61
     b98:	81 e0       	ldi	r24, 0x01	; 1
     b9a:	0e 94 49 00 	call	0x92	; 0x92 <WriteIns>
     b9e:	80 e0       	ldi	r24, 0x00	; 0
     ba0:	90 e0       	ldi	r25, 0x00	; 0
     ba2:	a0 e8       	ldi	r26, 0x80	; 128
     ba4:	bf e3       	ldi	r27, 0x3F	; 63
     ba6:	89 83       	std	Y+1, r24	; 0x01
     ba8:	9a 83       	std	Y+2, r25	; 0x02
     baa:	ab 83       	std	Y+3, r26	; 0x03
     bac:	bc 83       	std	Y+4, r27	; 0x04
     bae:	20 e0       	ldi	r18, 0x00	; 0
     bb0:	30 e0       	ldi	r19, 0x00	; 0
     bb2:	4a ef       	ldi	r20, 0xFA	; 250
     bb4:	54 e4       	ldi	r21, 0x44	; 68
     bb6:	69 81       	ldd	r22, Y+1	; 0x01
     bb8:	7a 81       	ldd	r23, Y+2	; 0x02
     bba:	8b 81       	ldd	r24, Y+3	; 0x03
     bbc:	9c 81       	ldd	r25, Y+4	; 0x04
     bbe:	0e 94 4c 17 	call	0x2e98	; 0x2e98 <__mulsf3>
     bc2:	dc 01       	movw	r26, r24
     bc4:	cb 01       	movw	r24, r22
     bc6:	8d 83       	std	Y+5, r24	; 0x05
     bc8:	9e 83       	std	Y+6, r25	; 0x06
     bca:	af 83       	std	Y+7, r26	; 0x07
     bcc:	b8 87       	std	Y+8, r27	; 0x08
     bce:	20 e0       	ldi	r18, 0x00	; 0
     bd0:	30 e0       	ldi	r19, 0x00	; 0
     bd2:	40 e8       	ldi	r20, 0x80	; 128
     bd4:	5f e3       	ldi	r21, 0x3F	; 63
     bd6:	6d 81       	ldd	r22, Y+5	; 0x05
     bd8:	7e 81       	ldd	r23, Y+6	; 0x06
     bda:	8f 81       	ldd	r24, Y+7	; 0x07
     bdc:	98 85       	ldd	r25, Y+8	; 0x08
     bde:	0e 94 9e 16 	call	0x2d3c	; 0x2d3c <__cmpsf2>
     be2:	88 23       	and	r24, r24
     be4:	2c f4       	brge	.+10     	; 0xbf0 <LCD_Clear+0x6c>
     be6:	81 e0       	ldi	r24, 0x01	; 1
     be8:	90 e0       	ldi	r25, 0x00	; 0
     bea:	9a 87       	std	Y+10, r25	; 0x0a
     bec:	89 87       	std	Y+9, r24	; 0x09
     bee:	3f c0       	rjmp	.+126    	; 0xc6e <LCD_Clear+0xea>
     bf0:	20 e0       	ldi	r18, 0x00	; 0
     bf2:	3f ef       	ldi	r19, 0xFF	; 255
     bf4:	4f e7       	ldi	r20, 0x7F	; 127
     bf6:	57 e4       	ldi	r21, 0x47	; 71
     bf8:	6d 81       	ldd	r22, Y+5	; 0x05
     bfa:	7e 81       	ldd	r23, Y+6	; 0x06
     bfc:	8f 81       	ldd	r24, Y+7	; 0x07
     bfe:	98 85       	ldd	r25, Y+8	; 0x08
     c00:	0e 94 47 17 	call	0x2e8e	; 0x2e8e <__gesf2>
     c04:	18 16       	cp	r1, r24
     c06:	4c f5       	brge	.+82     	; 0xc5a <LCD_Clear+0xd6>
     c08:	20 e0       	ldi	r18, 0x00	; 0
     c0a:	30 e0       	ldi	r19, 0x00	; 0
     c0c:	40 e2       	ldi	r20, 0x20	; 32
     c0e:	51 e4       	ldi	r21, 0x41	; 65
     c10:	69 81       	ldd	r22, Y+1	; 0x01
     c12:	7a 81       	ldd	r23, Y+2	; 0x02
     c14:	8b 81       	ldd	r24, Y+3	; 0x03
     c16:	9c 81       	ldd	r25, Y+4	; 0x04
     c18:	0e 94 4c 17 	call	0x2e98	; 0x2e98 <__mulsf3>
     c1c:	dc 01       	movw	r26, r24
     c1e:	cb 01       	movw	r24, r22
     c20:	bc 01       	movw	r22, r24
     c22:	cd 01       	movw	r24, r26
     c24:	0e 94 a3 16 	call	0x2d46	; 0x2d46 <__fixunssfsi>
     c28:	dc 01       	movw	r26, r24
     c2a:	cb 01       	movw	r24, r22
     c2c:	9a 87       	std	Y+10, r25	; 0x0a
     c2e:	89 87       	std	Y+9, r24	; 0x09
     c30:	0f c0       	rjmp	.+30     	; 0xc50 <LCD_Clear+0xcc>
     c32:	88 ec       	ldi	r24, 0xC8	; 200
     c34:	90 e0       	ldi	r25, 0x00	; 0
     c36:	9c 87       	std	Y+12, r25	; 0x0c
     c38:	8b 87       	std	Y+11, r24	; 0x0b
     c3a:	8b 85       	ldd	r24, Y+11	; 0x0b
     c3c:	9c 85       	ldd	r25, Y+12	; 0x0c
     c3e:	01 97       	sbiw	r24, 0x01	; 1
     c40:	f1 f7       	brne	.-4      	; 0xc3e <LCD_Clear+0xba>
     c42:	9c 87       	std	Y+12, r25	; 0x0c
     c44:	8b 87       	std	Y+11, r24	; 0x0b
     c46:	89 85       	ldd	r24, Y+9	; 0x09
     c48:	9a 85       	ldd	r25, Y+10	; 0x0a
     c4a:	01 97       	sbiw	r24, 0x01	; 1
     c4c:	9a 87       	std	Y+10, r25	; 0x0a
     c4e:	89 87       	std	Y+9, r24	; 0x09
     c50:	89 85       	ldd	r24, Y+9	; 0x09
     c52:	9a 85       	ldd	r25, Y+10	; 0x0a
     c54:	89 2b       	or	r24, r25
     c56:	69 f7       	brne	.-38     	; 0xc32 <LCD_Clear+0xae>
     c58:	14 c0       	rjmp	.+40     	; 0xc82 <LCD_Clear+0xfe>
     c5a:	6d 81       	ldd	r22, Y+5	; 0x05
     c5c:	7e 81       	ldd	r23, Y+6	; 0x06
     c5e:	8f 81       	ldd	r24, Y+7	; 0x07
     c60:	98 85       	ldd	r25, Y+8	; 0x08
     c62:	0e 94 a3 16 	call	0x2d46	; 0x2d46 <__fixunssfsi>
     c66:	dc 01       	movw	r26, r24
     c68:	cb 01       	movw	r24, r22
     c6a:	9a 87       	std	Y+10, r25	; 0x0a
     c6c:	89 87       	std	Y+9, r24	; 0x09
     c6e:	89 85       	ldd	r24, Y+9	; 0x09
     c70:	9a 85       	ldd	r25, Y+10	; 0x0a
     c72:	9e 87       	std	Y+14, r25	; 0x0e
     c74:	8d 87       	std	Y+13, r24	; 0x0d
     c76:	8d 85       	ldd	r24, Y+13	; 0x0d
     c78:	9e 85       	ldd	r25, Y+14	; 0x0e
     c7a:	01 97       	sbiw	r24, 0x01	; 1
     c7c:	f1 f7       	brne	.-4      	; 0xc7a <LCD_Clear+0xf6>
     c7e:	9e 87       	std	Y+14, r25	; 0x0e
     c80:	8d 87       	std	Y+13, r24	; 0x0d
     c82:	00 00       	nop
     c84:	2e 96       	adiw	r28, 0x0e	; 14
     c86:	0f b6       	in	r0, 0x3f	; 63
     c88:	f8 94       	cli
     c8a:	de bf       	out	0x3e, r29	; 62
     c8c:	0f be       	out	0x3f, r0	; 63
     c8e:	cd bf       	out	0x3d, r28	; 61
     c90:	df 91       	pop	r29
     c92:	cf 91       	pop	r28
     c94:	08 95       	ret

00000c96 <LCD_WriteString>:
     c96:	cf 93       	push	r28
     c98:	df 93       	push	r29
     c9a:	00 d0       	rcall	.+0      	; 0xc9c <LCD_WriteString+0x6>
     c9c:	1f 92       	push	r1
     c9e:	cd b7       	in	r28, 0x3d	; 61
     ca0:	de b7       	in	r29, 0x3e	; 62
     ca2:	9b 83       	std	Y+3, r25	; 0x03
     ca4:	8a 83       	std	Y+2, r24	; 0x02
     ca6:	19 82       	std	Y+1, r1	; 0x01
     ca8:	0e c0       	rjmp	.+28     	; 0xcc6 <LCD_WriteString+0x30>
     caa:	89 81       	ldd	r24, Y+1	; 0x01
     cac:	88 2f       	mov	r24, r24
     cae:	90 e0       	ldi	r25, 0x00	; 0
     cb0:	2a 81       	ldd	r18, Y+2	; 0x02
     cb2:	3b 81       	ldd	r19, Y+3	; 0x03
     cb4:	82 0f       	add	r24, r18
     cb6:	93 1f       	adc	r25, r19
     cb8:	fc 01       	movw	r30, r24
     cba:	80 81       	ld	r24, Z
     cbc:	0e 94 b4 05 	call	0xb68	; 0xb68 <LCD_WriteChar>
     cc0:	89 81       	ldd	r24, Y+1	; 0x01
     cc2:	8f 5f       	subi	r24, 0xFF	; 255
     cc4:	89 83       	std	Y+1, r24	; 0x01
     cc6:	89 81       	ldd	r24, Y+1	; 0x01
     cc8:	88 2f       	mov	r24, r24
     cca:	90 e0       	ldi	r25, 0x00	; 0
     ccc:	2a 81       	ldd	r18, Y+2	; 0x02
     cce:	3b 81       	ldd	r19, Y+3	; 0x03
     cd0:	82 0f       	add	r24, r18
     cd2:	93 1f       	adc	r25, r19
     cd4:	fc 01       	movw	r30, r24
     cd6:	80 81       	ld	r24, Z
     cd8:	88 23       	and	r24, r24
     cda:	39 f7       	brne	.-50     	; 0xcaa <LCD_WriteString+0x14>
     cdc:	00 00       	nop
     cde:	0f 90       	pop	r0
     ce0:	0f 90       	pop	r0
     ce2:	0f 90       	pop	r0
     ce4:	df 91       	pop	r29
     ce6:	cf 91       	pop	r28
     ce8:	08 95       	ret

00000cea <LCD_SetCursor>:
     cea:	cf 93       	push	r28
     cec:	df 93       	push	r29
     cee:	00 d0       	rcall	.+0      	; 0xcf0 <LCD_SetCursor+0x6>
     cf0:	cd b7       	in	r28, 0x3d	; 61
     cf2:	de b7       	in	r29, 0x3e	; 62
     cf4:	89 83       	std	Y+1, r24	; 0x01
     cf6:	6a 83       	std	Y+2, r22	; 0x02
     cf8:	89 81       	ldd	r24, Y+1	; 0x01
     cfa:	81 30       	cpi	r24, 0x01	; 1
     cfc:	31 f4       	brne	.+12     	; 0xd0a <LCD_SetCursor+0x20>
     cfe:	8a 81       	ldd	r24, Y+2	; 0x02
     d00:	81 50       	subi	r24, 0x01	; 1
     d02:	80 68       	ori	r24, 0x80	; 128
     d04:	0e 94 49 00 	call	0x92	; 0x92 <WriteIns>
     d08:	08 c0       	rjmp	.+16     	; 0xd1a <LCD_SetCursor+0x30>
     d0a:	89 81       	ldd	r24, Y+1	; 0x01
     d0c:	82 30       	cpi	r24, 0x02	; 2
     d0e:	29 f4       	brne	.+10     	; 0xd1a <LCD_SetCursor+0x30>
     d10:	8a 81       	ldd	r24, Y+2	; 0x02
     d12:	81 50       	subi	r24, 0x01	; 1
     d14:	80 6c       	ori	r24, 0xC0	; 192
     d16:	0e 94 49 00 	call	0x92	; 0x92 <WriteIns>
     d1a:	00 00       	nop
     d1c:	0f 90       	pop	r0
     d1e:	0f 90       	pop	r0
     d20:	df 91       	pop	r29
     d22:	cf 91       	pop	r28
     d24:	08 95       	ret

00000d26 <LCD_WriteNumber>:
     d26:	0f 93       	push	r16
     d28:	1f 93       	push	r17
     d2a:	cf 93       	push	r28
     d2c:	df 93       	push	r29
     d2e:	cd b7       	in	r28, 0x3d	; 61
     d30:	de b7       	in	r29, 0x3e	; 62
     d32:	6b 97       	sbiw	r28, 0x1b	; 27
     d34:	0f b6       	in	r0, 0x3f	; 63
     d36:	f8 94       	cli
     d38:	de bf       	out	0x3e, r29	; 62
     d3a:	0f be       	out	0x3f, r0	; 63
     d3c:	cd bf       	out	0x3d, r28	; 61
     d3e:	68 8f       	std	Y+24, r22	; 0x18
     d40:	79 8f       	std	Y+25, r23	; 0x19
     d42:	8a 8f       	std	Y+26, r24	; 0x1a
     d44:	9b 8f       	std	Y+27, r25	; 0x1b
     d46:	19 82       	std	Y+1, r1	; 0x01
     d48:	88 8d       	ldd	r24, Y+24	; 0x18
     d4a:	99 8d       	ldd	r25, Y+25	; 0x19
     d4c:	aa 8d       	ldd	r26, Y+26	; 0x1a
     d4e:	bb 8d       	ldd	r27, Y+27	; 0x1b
     d50:	89 2b       	or	r24, r25
     d52:	8a 2b       	or	r24, r26
     d54:	8b 2b       	or	r24, r27
     d56:	19 f4       	brne	.+6      	; 0xd5e <LCD_WriteNumber+0x38>
     d58:	80 e3       	ldi	r24, 0x30	; 48
     d5a:	0e 94 b4 05 	call	0xb68	; 0xb68 <LCD_WriteChar>
     d5e:	88 8d       	ldd	r24, Y+24	; 0x18
     d60:	99 8d       	ldd	r25, Y+25	; 0x19
     d62:	aa 8d       	ldd	r26, Y+26	; 0x1a
     d64:	bb 8d       	ldd	r27, Y+27	; 0x1b
     d66:	bb 23       	and	r27, r27
     d68:	0c f0       	brlt	.+2      	; 0xd6c <LCD_WriteNumber+0x46>
     d6a:	40 c0       	rjmp	.+128    	; 0xdec <LCD_WriteNumber+0xc6>
     d6c:	8d e2       	ldi	r24, 0x2D	; 45
     d6e:	0e 94 b4 05 	call	0xb68	; 0xb68 <LCD_WriteChar>
     d72:	88 8d       	ldd	r24, Y+24	; 0x18
     d74:	99 8d       	ldd	r25, Y+25	; 0x19
     d76:	aa 8d       	ldd	r26, Y+26	; 0x1a
     d78:	bb 8d       	ldd	r27, Y+27	; 0x1b
     d7a:	b0 95       	com	r27
     d7c:	a0 95       	com	r26
     d7e:	90 95       	com	r25
     d80:	81 95       	neg	r24
     d82:	9f 4f       	sbci	r25, 0xFF	; 255
     d84:	af 4f       	sbci	r26, 0xFF	; 255
     d86:	bf 4f       	sbci	r27, 0xFF	; 255
     d88:	88 8f       	std	Y+24, r24	; 0x18
     d8a:	99 8f       	std	Y+25, r25	; 0x19
     d8c:	aa 8f       	std	Y+26, r26	; 0x1a
     d8e:	bb 8f       	std	Y+27, r27	; 0x1b
     d90:	2d c0       	rjmp	.+90     	; 0xdec <LCD_WriteNumber+0xc6>
     d92:	89 81       	ldd	r24, Y+1	; 0x01
     d94:	08 2f       	mov	r16, r24
     d96:	10 e0       	ldi	r17, 0x00	; 0
     d98:	88 8d       	ldd	r24, Y+24	; 0x18
     d9a:	99 8d       	ldd	r25, Y+25	; 0x19
     d9c:	aa 8d       	ldd	r26, Y+26	; 0x1a
     d9e:	bb 8d       	ldd	r27, Y+27	; 0x1b
     da0:	2a e0       	ldi	r18, 0x0A	; 10
     da2:	30 e0       	ldi	r19, 0x00	; 0
     da4:	40 e0       	ldi	r20, 0x00	; 0
     da6:	50 e0       	ldi	r21, 0x00	; 0
     da8:	bc 01       	movw	r22, r24
     daa:	cd 01       	movw	r24, r26
     dac:	0e 94 db 17 	call	0x2fb6	; 0x2fb6 <__divmodsi4>
     db0:	dc 01       	movw	r26, r24
     db2:	cb 01       	movw	r24, r22
     db4:	28 2f       	mov	r18, r24
     db6:	ce 01       	movw	r24, r28
     db8:	04 96       	adiw	r24, 0x04	; 4
     dba:	80 0f       	add	r24, r16
     dbc:	91 1f       	adc	r25, r17
     dbe:	fc 01       	movw	r30, r24
     dc0:	20 83       	st	Z, r18
     dc2:	88 8d       	ldd	r24, Y+24	; 0x18
     dc4:	99 8d       	ldd	r25, Y+25	; 0x19
     dc6:	aa 8d       	ldd	r26, Y+26	; 0x1a
     dc8:	bb 8d       	ldd	r27, Y+27	; 0x1b
     dca:	2a e0       	ldi	r18, 0x0A	; 10
     dcc:	30 e0       	ldi	r19, 0x00	; 0
     dce:	40 e0       	ldi	r20, 0x00	; 0
     dd0:	50 e0       	ldi	r21, 0x00	; 0
     dd2:	bc 01       	movw	r22, r24
     dd4:	cd 01       	movw	r24, r26
     dd6:	0e 94 db 17 	call	0x2fb6	; 0x2fb6 <__divmodsi4>
     dda:	da 01       	movw	r26, r20
     ddc:	c9 01       	movw	r24, r18
     dde:	88 8f       	std	Y+24, r24	; 0x18
     de0:	99 8f       	std	Y+25, r25	; 0x19
     de2:	aa 8f       	std	Y+26, r26	; 0x1a
     de4:	bb 8f       	std	Y+27, r27	; 0x1b
     de6:	89 81       	ldd	r24, Y+1	; 0x01
     de8:	8f 5f       	subi	r24, 0xFF	; 255
     dea:	89 83       	std	Y+1, r24	; 0x01
     dec:	88 8d       	ldd	r24, Y+24	; 0x18
     dee:	99 8d       	ldd	r25, Y+25	; 0x19
     df0:	aa 8d       	ldd	r26, Y+26	; 0x1a
     df2:	bb 8d       	ldd	r27, Y+27	; 0x1b
     df4:	89 2b       	or	r24, r25
     df6:	8a 2b       	or	r24, r26
     df8:	8b 2b       	or	r24, r27
     dfa:	59 f6       	brne	.-106    	; 0xd92 <LCD_WriteNumber+0x6c>
     dfc:	89 81       	ldd	r24, Y+1	; 0x01
     dfe:	81 50       	subi	r24, 0x01	; 1
     e00:	8a 83       	std	Y+2, r24	; 0x02
     e02:	13 c0       	rjmp	.+38     	; 0xe2a <LCD_WriteNumber+0x104>
     e04:	8a 81       	ldd	r24, Y+2	; 0x02
     e06:	08 2e       	mov	r0, r24
     e08:	00 0c       	add	r0, r0
     e0a:	99 0b       	sbc	r25, r25
     e0c:	9e 01       	movw	r18, r28
     e0e:	2c 5f       	subi	r18, 0xFC	; 252
     e10:	3f 4f       	sbci	r19, 0xFF	; 255
     e12:	82 0f       	add	r24, r18
     e14:	93 1f       	adc	r25, r19
     e16:	fc 01       	movw	r30, r24
     e18:	80 81       	ld	r24, Z
     e1a:	80 5d       	subi	r24, 0xD0	; 208
     e1c:	8b 83       	std	Y+3, r24	; 0x03
     e1e:	8b 81       	ldd	r24, Y+3	; 0x03
     e20:	0e 94 b4 05 	call	0xb68	; 0xb68 <LCD_WriteChar>
     e24:	8a 81       	ldd	r24, Y+2	; 0x02
     e26:	81 50       	subi	r24, 0x01	; 1
     e28:	8a 83       	std	Y+2, r24	; 0x02
     e2a:	8a 81       	ldd	r24, Y+2	; 0x02
     e2c:	88 23       	and	r24, r24
     e2e:	54 f7       	brge	.-44     	; 0xe04 <LCD_WriteNumber+0xde>
     e30:	00 00       	nop
     e32:	6b 96       	adiw	r28, 0x1b	; 27
     e34:	0f b6       	in	r0, 0x3f	; 63
     e36:	f8 94       	cli
     e38:	de bf       	out	0x3e, r29	; 62
     e3a:	0f be       	out	0x3f, r0	; 63
     e3c:	cd bf       	out	0x3d, r28	; 61
     e3e:	df 91       	pop	r29
     e40:	cf 91       	pop	r28
     e42:	1f 91       	pop	r17
     e44:	0f 91       	pop	r16
     e46:	08 95       	ret

00000e48 <Servo_Position>:
     e48:	0f 93       	push	r16
     e4a:	1f 93       	push	r17
     e4c:	cf 93       	push	r28
     e4e:	df 93       	push	r29
     e50:	1f 92       	push	r1
     e52:	cd b7       	in	r28, 0x3d	; 61
     e54:	de b7       	in	r29, 0x3e	; 62
     e56:	89 83       	std	Y+1, r24	; 0x01
     e58:	08 e4       	ldi	r16, 0x48	; 72
     e5a:	10 e0       	ldi	r17, 0x00	; 0
     e5c:	89 81       	ldd	r24, Y+1	; 0x01
     e5e:	28 2f       	mov	r18, r24
     e60:	30 e0       	ldi	r19, 0x00	; 0
     e62:	40 e0       	ldi	r20, 0x00	; 0
     e64:	50 e0       	ldi	r21, 0x00	; 0
     e66:	88 ee       	ldi	r24, 0xE8	; 232
     e68:	93 e0       	ldi	r25, 0x03	; 3
     e6a:	dc 01       	movw	r26, r24
     e6c:	0e 94 09 18 	call	0x3012	; 0x3012 <__muluhisi3>
     e70:	dc 01       	movw	r26, r24
     e72:	cb 01       	movw	r24, r22
     e74:	24 eb       	ldi	r18, 0xB4	; 180
     e76:	30 e0       	ldi	r19, 0x00	; 0
     e78:	40 e0       	ldi	r20, 0x00	; 0
     e7a:	50 e0       	ldi	r21, 0x00	; 0
     e7c:	bc 01       	movw	r22, r24
     e7e:	cd 01       	movw	r24, r26
     e80:	0e 94 b9 17 	call	0x2f72	; 0x2f72 <__udivmodsi4>
     e84:	da 01       	movw	r26, r20
     e86:	c9 01       	movw	r24, r18
     e88:	89 51       	subi	r24, 0x19	; 25
     e8a:	9c 4f       	sbci	r25, 0xFC	; 252
     e8c:	f8 01       	movw	r30, r16
     e8e:	91 83       	std	Z+1, r25	; 0x01
     e90:	80 83       	st	Z, r24
     e92:	00 00       	nop
     e94:	0f 90       	pop	r0
     e96:	df 91       	pop	r29
     e98:	cf 91       	pop	r28
     e9a:	1f 91       	pop	r17
     e9c:	0f 91       	pop	r16
     e9e:	08 95       	ret

00000ea0 <Floor1_Enter_Int_func>:
     ea0:	cf 93       	push	r28
     ea2:	df 93       	push	r29
     ea4:	cd b7       	in	r28, 0x3d	; 61
     ea6:	de b7       	in	r29, 0x3e	; 62
     ea8:	2e 97       	sbiw	r28, 0x0e	; 14
     eaa:	0f b6       	in	r0, 0x3f	; 63
     eac:	f8 94       	cli
     eae:	de bf       	out	0x3e, r29	; 62
     eb0:	0f be       	out	0x3f, r0	; 63
     eb2:	cd bf       	out	0x3d, r28	; 61
     eb4:	80 91 60 00 	lds	r24, 0x0060	; 0x800060 <__DATA_REGION_ORIGIN__>
     eb8:	90 91 61 00 	lds	r25, 0x0061	; 0x800061 <__DATA_REGION_ORIGIN__+0x1>
     ebc:	89 2b       	or	r24, r25
     ebe:	09 f4       	brne	.+2      	; 0xec2 <Floor1_Enter_Int_func+0x22>
     ec0:	93 c0       	rjmp	.+294    	; 0xfe8 <Floor1_Enter_Int_func+0x148>
     ec2:	80 91 60 00 	lds	r24, 0x0060	; 0x800060 <__DATA_REGION_ORIGIN__>
     ec6:	90 91 61 00 	lds	r25, 0x0061	; 0x800061 <__DATA_REGION_ORIGIN__+0x1>
     eca:	09 97       	sbiw	r24, 0x09	; 9
     ecc:	08 f0       	brcs	.+2      	; 0xed0 <Floor1_Enter_Int_func+0x30>
     ece:	8c c0       	rjmp	.+280    	; 0xfe8 <Floor1_Enter_Int_func+0x148>
     ed0:	80 91 e4 00 	lds	r24, 0x00E4	; 0x8000e4 <ex>
     ed4:	88 23       	and	r24, r24
     ed6:	09 f0       	breq	.+2      	; 0xeda <Floor1_Enter_Int_func+0x3a>
     ed8:	87 c0       	rjmp	.+270    	; 0xfe8 <Floor1_Enter_Int_func+0x148>
     eda:	81 e0       	ldi	r24, 0x01	; 1
     edc:	80 93 e2 00 	sts	0x00E2, r24	; 0x8000e2 <__data_end>
     ee0:	84 eb       	ldi	r24, 0xB4	; 180
     ee2:	0e 94 24 07 	call	0xe48	; 0xe48 <Servo_Position>
     ee6:	80 e0       	ldi	r24, 0x00	; 0
     ee8:	90 e0       	ldi	r25, 0x00	; 0
     eea:	aa ef       	ldi	r26, 0xFA	; 250
     eec:	b4 e4       	ldi	r27, 0x44	; 68
     eee:	89 83       	std	Y+1, r24	; 0x01
     ef0:	9a 83       	std	Y+2, r25	; 0x02
     ef2:	ab 83       	std	Y+3, r26	; 0x03
     ef4:	bc 83       	std	Y+4, r27	; 0x04
     ef6:	20 e0       	ldi	r18, 0x00	; 0
     ef8:	30 e0       	ldi	r19, 0x00	; 0
     efa:	4a ef       	ldi	r20, 0xFA	; 250
     efc:	54 e4       	ldi	r21, 0x44	; 68
     efe:	69 81       	ldd	r22, Y+1	; 0x01
     f00:	7a 81       	ldd	r23, Y+2	; 0x02
     f02:	8b 81       	ldd	r24, Y+3	; 0x03
     f04:	9c 81       	ldd	r25, Y+4	; 0x04
     f06:	0e 94 4c 17 	call	0x2e98	; 0x2e98 <__mulsf3>
     f0a:	dc 01       	movw	r26, r24
     f0c:	cb 01       	movw	r24, r22
     f0e:	8d 83       	std	Y+5, r24	; 0x05
     f10:	9e 83       	std	Y+6, r25	; 0x06
     f12:	af 83       	std	Y+7, r26	; 0x07
     f14:	b8 87       	std	Y+8, r27	; 0x08
     f16:	20 e0       	ldi	r18, 0x00	; 0
     f18:	30 e0       	ldi	r19, 0x00	; 0
     f1a:	40 e8       	ldi	r20, 0x80	; 128
     f1c:	5f e3       	ldi	r21, 0x3F	; 63
     f1e:	6d 81       	ldd	r22, Y+5	; 0x05
     f20:	7e 81       	ldd	r23, Y+6	; 0x06
     f22:	8f 81       	ldd	r24, Y+7	; 0x07
     f24:	98 85       	ldd	r25, Y+8	; 0x08
     f26:	0e 94 9e 16 	call	0x2d3c	; 0x2d3c <__cmpsf2>
     f2a:	88 23       	and	r24, r24
     f2c:	2c f4       	brge	.+10     	; 0xf38 <Floor1_Enter_Int_func+0x98>
     f2e:	81 e0       	ldi	r24, 0x01	; 1
     f30:	90 e0       	ldi	r25, 0x00	; 0
     f32:	9a 87       	std	Y+10, r25	; 0x0a
     f34:	89 87       	std	Y+9, r24	; 0x09
     f36:	3f c0       	rjmp	.+126    	; 0xfb6 <Floor1_Enter_Int_func+0x116>
     f38:	20 e0       	ldi	r18, 0x00	; 0
     f3a:	3f ef       	ldi	r19, 0xFF	; 255
     f3c:	4f e7       	ldi	r20, 0x7F	; 127
     f3e:	57 e4       	ldi	r21, 0x47	; 71
     f40:	6d 81       	ldd	r22, Y+5	; 0x05
     f42:	7e 81       	ldd	r23, Y+6	; 0x06
     f44:	8f 81       	ldd	r24, Y+7	; 0x07
     f46:	98 85       	ldd	r25, Y+8	; 0x08
     f48:	0e 94 47 17 	call	0x2e8e	; 0x2e8e <__gesf2>
     f4c:	18 16       	cp	r1, r24
     f4e:	4c f5       	brge	.+82     	; 0xfa2 <Floor1_Enter_Int_func+0x102>
     f50:	20 e0       	ldi	r18, 0x00	; 0
     f52:	30 e0       	ldi	r19, 0x00	; 0
     f54:	40 e2       	ldi	r20, 0x20	; 32
     f56:	51 e4       	ldi	r21, 0x41	; 65
     f58:	69 81       	ldd	r22, Y+1	; 0x01
     f5a:	7a 81       	ldd	r23, Y+2	; 0x02
     f5c:	8b 81       	ldd	r24, Y+3	; 0x03
     f5e:	9c 81       	ldd	r25, Y+4	; 0x04
     f60:	0e 94 4c 17 	call	0x2e98	; 0x2e98 <__mulsf3>
     f64:	dc 01       	movw	r26, r24
     f66:	cb 01       	movw	r24, r22
     f68:	bc 01       	movw	r22, r24
     f6a:	cd 01       	movw	r24, r26
     f6c:	0e 94 a3 16 	call	0x2d46	; 0x2d46 <__fixunssfsi>
     f70:	dc 01       	movw	r26, r24
     f72:	cb 01       	movw	r24, r22
     f74:	9a 87       	std	Y+10, r25	; 0x0a
     f76:	89 87       	std	Y+9, r24	; 0x09
     f78:	0f c0       	rjmp	.+30     	; 0xf98 <Floor1_Enter_Int_func+0xf8>
     f7a:	88 ec       	ldi	r24, 0xC8	; 200
     f7c:	90 e0       	ldi	r25, 0x00	; 0
     f7e:	9c 87       	std	Y+12, r25	; 0x0c
     f80:	8b 87       	std	Y+11, r24	; 0x0b
     f82:	8b 85       	ldd	r24, Y+11	; 0x0b
     f84:	9c 85       	ldd	r25, Y+12	; 0x0c
     f86:	01 97       	sbiw	r24, 0x01	; 1
     f88:	f1 f7       	brne	.-4      	; 0xf86 <Floor1_Enter_Int_func+0xe6>
     f8a:	9c 87       	std	Y+12, r25	; 0x0c
     f8c:	8b 87       	std	Y+11, r24	; 0x0b
     f8e:	89 85       	ldd	r24, Y+9	; 0x09
     f90:	9a 85       	ldd	r25, Y+10	; 0x0a
     f92:	01 97       	sbiw	r24, 0x01	; 1
     f94:	9a 87       	std	Y+10, r25	; 0x0a
     f96:	89 87       	std	Y+9, r24	; 0x09
     f98:	89 85       	ldd	r24, Y+9	; 0x09
     f9a:	9a 85       	ldd	r25, Y+10	; 0x0a
     f9c:	89 2b       	or	r24, r25
     f9e:	69 f7       	brne	.-38     	; 0xf7a <Floor1_Enter_Int_func+0xda>
     fa0:	14 c0       	rjmp	.+40     	; 0xfca <Floor1_Enter_Int_func+0x12a>
     fa2:	6d 81       	ldd	r22, Y+5	; 0x05
     fa4:	7e 81       	ldd	r23, Y+6	; 0x06
     fa6:	8f 81       	ldd	r24, Y+7	; 0x07
     fa8:	98 85       	ldd	r25, Y+8	; 0x08
     faa:	0e 94 a3 16 	call	0x2d46	; 0x2d46 <__fixunssfsi>
     fae:	dc 01       	movw	r26, r24
     fb0:	cb 01       	movw	r24, r22
     fb2:	9a 87       	std	Y+10, r25	; 0x0a
     fb4:	89 87       	std	Y+9, r24	; 0x09
     fb6:	89 85       	ldd	r24, Y+9	; 0x09
     fb8:	9a 85       	ldd	r25, Y+10	; 0x0a
     fba:	9e 87       	std	Y+14, r25	; 0x0e
     fbc:	8d 87       	std	Y+13, r24	; 0x0d
     fbe:	8d 85       	ldd	r24, Y+13	; 0x0d
     fc0:	9e 85       	ldd	r25, Y+14	; 0x0e
     fc2:	01 97       	sbiw	r24, 0x01	; 1
     fc4:	f1 f7       	brne	.-4      	; 0xfc2 <Floor1_Enter_Int_func+0x122>
     fc6:	9e 87       	std	Y+14, r25	; 0x0e
     fc8:	8d 87       	std	Y+13, r24	; 0x0d
     fca:	80 e0       	ldi	r24, 0x00	; 0
     fcc:	0e 94 24 07 	call	0xe48	; 0xe48 <Servo_Position>
     fd0:	80 91 60 00 	lds	r24, 0x0060	; 0x800060 <__DATA_REGION_ORIGIN__>
     fd4:	90 91 61 00 	lds	r25, 0x0061	; 0x800061 <__DATA_REGION_ORIGIN__+0x1>
     fd8:	01 97       	sbiw	r24, 0x01	; 1
     fda:	90 93 61 00 	sts	0x0061, r25	; 0x800061 <__DATA_REGION_ORIGIN__+0x1>
     fde:	80 93 60 00 	sts	0x0060, r24	; 0x800060 <__DATA_REGION_ORIGIN__>
     fe2:	81 e0       	ldi	r24, 0x01	; 1
     fe4:	80 93 e3 00 	sts	0x00E3, r24	; 0x8000e3 <en>
     fe8:	10 92 e4 00 	sts	0x00E4, r1	; 0x8000e4 <ex>
     fec:	00 00       	nop
     fee:	2e 96       	adiw	r28, 0x0e	; 14
     ff0:	0f b6       	in	r0, 0x3f	; 63
     ff2:	f8 94       	cli
     ff4:	de bf       	out	0x3e, r29	; 62
     ff6:	0f be       	out	0x3f, r0	; 63
     ff8:	cd bf       	out	0x3d, r28	; 61
     ffa:	df 91       	pop	r29
     ffc:	cf 91       	pop	r28
     ffe:	08 95       	ret

00001000 <Floor1_Exit_Int_func>:
    1000:	cf 93       	push	r28
    1002:	df 93       	push	r29
    1004:	cd b7       	in	r28, 0x3d	; 61
    1006:	de b7       	in	r29, 0x3e	; 62
    1008:	2e 97       	sbiw	r28, 0x0e	; 14
    100a:	0f b6       	in	r0, 0x3f	; 63
    100c:	f8 94       	cli
    100e:	de bf       	out	0x3e, r29	; 62
    1010:	0f be       	out	0x3f, r0	; 63
    1012:	cd bf       	out	0x3d, r28	; 61
    1014:	80 91 60 00 	lds	r24, 0x0060	; 0x800060 <__DATA_REGION_ORIGIN__>
    1018:	90 91 61 00 	lds	r25, 0x0061	; 0x800061 <__DATA_REGION_ORIGIN__+0x1>
    101c:	08 97       	sbiw	r24, 0x08	; 8
    101e:	08 f0       	brcs	.+2      	; 0x1022 <Floor1_Exit_Int_func+0x22>
    1020:	8d c0       	rjmp	.+282    	; 0x113c <Floor1_Exit_Int_func+0x13c>
    1022:	80 91 60 00 	lds	r24, 0x0060	; 0x800060 <__DATA_REGION_ORIGIN__>
    1026:	90 91 61 00 	lds	r25, 0x0061	; 0x800061 <__DATA_REGION_ORIGIN__+0x1>
    102a:	80 91 e3 00 	lds	r24, 0x00E3	; 0x8000e3 <en>
    102e:	88 23       	and	r24, r24
    1030:	09 f0       	breq	.+2      	; 0x1034 <Floor1_Exit_Int_func+0x34>
    1032:	84 c0       	rjmp	.+264    	; 0x113c <Floor1_Exit_Int_func+0x13c>
    1034:	8a e5       	ldi	r24, 0x5A	; 90
    1036:	0e 94 24 07 	call	0xe48	; 0xe48 <Servo_Position>
    103a:	80 e0       	ldi	r24, 0x00	; 0
    103c:	90 e0       	ldi	r25, 0x00	; 0
    103e:	aa ef       	ldi	r26, 0xFA	; 250
    1040:	b4 e4       	ldi	r27, 0x44	; 68
    1042:	89 83       	std	Y+1, r24	; 0x01
    1044:	9a 83       	std	Y+2, r25	; 0x02
    1046:	ab 83       	std	Y+3, r26	; 0x03
    1048:	bc 83       	std	Y+4, r27	; 0x04
    104a:	20 e0       	ldi	r18, 0x00	; 0
    104c:	30 e0       	ldi	r19, 0x00	; 0
    104e:	4a ef       	ldi	r20, 0xFA	; 250
    1050:	54 e4       	ldi	r21, 0x44	; 68
    1052:	69 81       	ldd	r22, Y+1	; 0x01
    1054:	7a 81       	ldd	r23, Y+2	; 0x02
    1056:	8b 81       	ldd	r24, Y+3	; 0x03
    1058:	9c 81       	ldd	r25, Y+4	; 0x04
    105a:	0e 94 4c 17 	call	0x2e98	; 0x2e98 <__mulsf3>
    105e:	dc 01       	movw	r26, r24
    1060:	cb 01       	movw	r24, r22
    1062:	8d 83       	std	Y+5, r24	; 0x05
    1064:	9e 83       	std	Y+6, r25	; 0x06
    1066:	af 83       	std	Y+7, r26	; 0x07
    1068:	b8 87       	std	Y+8, r27	; 0x08
    106a:	20 e0       	ldi	r18, 0x00	; 0
    106c:	30 e0       	ldi	r19, 0x00	; 0
    106e:	40 e8       	ldi	r20, 0x80	; 128
    1070:	5f e3       	ldi	r21, 0x3F	; 63
    1072:	6d 81       	ldd	r22, Y+5	; 0x05
    1074:	7e 81       	ldd	r23, Y+6	; 0x06
    1076:	8f 81       	ldd	r24, Y+7	; 0x07
    1078:	98 85       	ldd	r25, Y+8	; 0x08
    107a:	0e 94 9e 16 	call	0x2d3c	; 0x2d3c <__cmpsf2>
    107e:	88 23       	and	r24, r24
    1080:	2c f4       	brge	.+10     	; 0x108c <Floor1_Exit_Int_func+0x8c>
    1082:	81 e0       	ldi	r24, 0x01	; 1
    1084:	90 e0       	ldi	r25, 0x00	; 0
    1086:	9a 87       	std	Y+10, r25	; 0x0a
    1088:	89 87       	std	Y+9, r24	; 0x09
    108a:	3f c0       	rjmp	.+126    	; 0x110a <Floor1_Exit_Int_func+0x10a>
    108c:	20 e0       	ldi	r18, 0x00	; 0
    108e:	3f ef       	ldi	r19, 0xFF	; 255
    1090:	4f e7       	ldi	r20, 0x7F	; 127
    1092:	57 e4       	ldi	r21, 0x47	; 71
    1094:	6d 81       	ldd	r22, Y+5	; 0x05
    1096:	7e 81       	ldd	r23, Y+6	; 0x06
    1098:	8f 81       	ldd	r24, Y+7	; 0x07
    109a:	98 85       	ldd	r25, Y+8	; 0x08
    109c:	0e 94 47 17 	call	0x2e8e	; 0x2e8e <__gesf2>
    10a0:	18 16       	cp	r1, r24
    10a2:	4c f5       	brge	.+82     	; 0x10f6 <Floor1_Exit_Int_func+0xf6>
    10a4:	20 e0       	ldi	r18, 0x00	; 0
    10a6:	30 e0       	ldi	r19, 0x00	; 0
    10a8:	40 e2       	ldi	r20, 0x20	; 32
    10aa:	51 e4       	ldi	r21, 0x41	; 65
    10ac:	69 81       	ldd	r22, Y+1	; 0x01
    10ae:	7a 81       	ldd	r23, Y+2	; 0x02
    10b0:	8b 81       	ldd	r24, Y+3	; 0x03
    10b2:	9c 81       	ldd	r25, Y+4	; 0x04
    10b4:	0e 94 4c 17 	call	0x2e98	; 0x2e98 <__mulsf3>
    10b8:	dc 01       	movw	r26, r24
    10ba:	cb 01       	movw	r24, r22
    10bc:	bc 01       	movw	r22, r24
    10be:	cd 01       	movw	r24, r26
    10c0:	0e 94 a3 16 	call	0x2d46	; 0x2d46 <__fixunssfsi>
    10c4:	dc 01       	movw	r26, r24
    10c6:	cb 01       	movw	r24, r22
    10c8:	9a 87       	std	Y+10, r25	; 0x0a
    10ca:	89 87       	std	Y+9, r24	; 0x09
    10cc:	0f c0       	rjmp	.+30     	; 0x10ec <Floor1_Exit_Int_func+0xec>
    10ce:	88 ec       	ldi	r24, 0xC8	; 200
    10d0:	90 e0       	ldi	r25, 0x00	; 0
    10d2:	9c 87       	std	Y+12, r25	; 0x0c
    10d4:	8b 87       	std	Y+11, r24	; 0x0b
    10d6:	8b 85       	ldd	r24, Y+11	; 0x0b
    10d8:	9c 85       	ldd	r25, Y+12	; 0x0c
    10da:	01 97       	sbiw	r24, 0x01	; 1
    10dc:	f1 f7       	brne	.-4      	; 0x10da <Floor1_Exit_Int_func+0xda>
    10de:	9c 87       	std	Y+12, r25	; 0x0c
    10e0:	8b 87       	std	Y+11, r24	; 0x0b
    10e2:	89 85       	ldd	r24, Y+9	; 0x09
    10e4:	9a 85       	ldd	r25, Y+10	; 0x0a
    10e6:	01 97       	sbiw	r24, 0x01	; 1
    10e8:	9a 87       	std	Y+10, r25	; 0x0a
    10ea:	89 87       	std	Y+9, r24	; 0x09
    10ec:	89 85       	ldd	r24, Y+9	; 0x09
    10ee:	9a 85       	ldd	r25, Y+10	; 0x0a
    10f0:	89 2b       	or	r24, r25
    10f2:	69 f7       	brne	.-38     	; 0x10ce <Floor1_Exit_Int_func+0xce>
    10f4:	14 c0       	rjmp	.+40     	; 0x111e <Floor1_Exit_Int_func+0x11e>
    10f6:	6d 81       	ldd	r22, Y+5	; 0x05
    10f8:	7e 81       	ldd	r23, Y+6	; 0x06
    10fa:	8f 81       	ldd	r24, Y+7	; 0x07
    10fc:	98 85       	ldd	r25, Y+8	; 0x08
    10fe:	0e 94 a3 16 	call	0x2d46	; 0x2d46 <__fixunssfsi>
    1102:	dc 01       	movw	r26, r24
    1104:	cb 01       	movw	r24, r22
    1106:	9a 87       	std	Y+10, r25	; 0x0a
    1108:	89 87       	std	Y+9, r24	; 0x09
    110a:	89 85       	ldd	r24, Y+9	; 0x09
    110c:	9a 85       	ldd	r25, Y+10	; 0x0a
    110e:	9e 87       	std	Y+14, r25	; 0x0e
    1110:	8d 87       	std	Y+13, r24	; 0x0d
    1112:	8d 85       	ldd	r24, Y+13	; 0x0d
    1114:	9e 85       	ldd	r25, Y+14	; 0x0e
    1116:	01 97       	sbiw	r24, 0x01	; 1
    1118:	f1 f7       	brne	.-4      	; 0x1116 <Floor1_Exit_Int_func+0x116>
    111a:	9e 87       	std	Y+14, r25	; 0x0e
    111c:	8d 87       	std	Y+13, r24	; 0x0d
    111e:	80 e0       	ldi	r24, 0x00	; 0
    1120:	0e 94 24 07 	call	0xe48	; 0xe48 <Servo_Position>
    1124:	80 91 60 00 	lds	r24, 0x0060	; 0x800060 <__DATA_REGION_ORIGIN__>
    1128:	90 91 61 00 	lds	r25, 0x0061	; 0x800061 <__DATA_REGION_ORIGIN__+0x1>
    112c:	01 96       	adiw	r24, 0x01	; 1
    112e:	90 93 61 00 	sts	0x0061, r25	; 0x800061 <__DATA_REGION_ORIGIN__+0x1>
    1132:	80 93 60 00 	sts	0x0060, r24	; 0x800060 <__DATA_REGION_ORIGIN__>
    1136:	81 e0       	ldi	r24, 0x01	; 1
    1138:	80 93 e4 00 	sts	0x00E4, r24	; 0x8000e4 <ex>
    113c:	10 92 e3 00 	sts	0x00E3, r1	; 0x8000e3 <en>
    1140:	00 00       	nop
    1142:	2e 96       	adiw	r28, 0x0e	; 14
    1144:	0f b6       	in	r0, 0x3f	; 63
    1146:	f8 94       	cli
    1148:	de bf       	out	0x3e, r29	; 62
    114a:	0f be       	out	0x3f, r0	; 63
    114c:	cd bf       	out	0x3d, r28	; 61
    114e:	df 91       	pop	r29
    1150:	cf 91       	pop	r28
    1152:	08 95       	ret

00001154 <Floor2_Enter_Int_func>:
    1154:	cf 93       	push	r28
    1156:	df 93       	push	r29
    1158:	cd b7       	in	r28, 0x3d	; 61
    115a:	de b7       	in	r29, 0x3e	; 62
    115c:	2e 97       	sbiw	r28, 0x0e	; 14
    115e:	0f b6       	in	r0, 0x3f	; 63
    1160:	f8 94       	cli
    1162:	de bf       	out	0x3e, r29	; 62
    1164:	0f be       	out	0x3f, r0	; 63
    1166:	cd bf       	out	0x3d, r28	; 61
    1168:	80 91 62 00 	lds	r24, 0x0062	; 0x800062 <floor2>
    116c:	90 91 63 00 	lds	r25, 0x0063	; 0x800063 <floor2+0x1>
    1170:	80 91 e2 00 	lds	r24, 0x00E2	; 0x8000e2 <__data_end>
    1174:	81 30       	cpi	r24, 0x01	; 1
    1176:	09 f0       	breq	.+2      	; 0x117a <Floor2_Enter_Int_func+0x26>
    1178:	84 c0       	rjmp	.+264    	; 0x1282 <Floor2_Enter_Int_func+0x12e>
    117a:	80 91 60 00 	lds	r24, 0x0060	; 0x800060 <__DATA_REGION_ORIGIN__>
    117e:	90 91 61 00 	lds	r25, 0x0061	; 0x800061 <__DATA_REGION_ORIGIN__+0x1>
    1182:	01 96       	adiw	r24, 0x01	; 1
    1184:	90 93 61 00 	sts	0x0061, r25	; 0x800061 <__DATA_REGION_ORIGIN__+0x1>
    1188:	80 93 60 00 	sts	0x0060, r24	; 0x800060 <__DATA_REGION_ORIGIN__>
    118c:	80 91 62 00 	lds	r24, 0x0062	; 0x800062 <floor2>
    1190:	90 91 63 00 	lds	r25, 0x0063	; 0x800063 <floor2+0x1>
    1194:	01 97       	sbiw	r24, 0x01	; 1
    1196:	90 93 63 00 	sts	0x0063, r25	; 0x800063 <floor2+0x1>
    119a:	80 93 62 00 	sts	0x0062, r24	; 0x800062 <floor2>
    119e:	80 e0       	ldi	r24, 0x00	; 0
    11a0:	90 e0       	ldi	r25, 0x00	; 0
    11a2:	aa ef       	ldi	r26, 0xFA	; 250
    11a4:	b4 e4       	ldi	r27, 0x44	; 68
    11a6:	89 83       	std	Y+1, r24	; 0x01
    11a8:	9a 83       	std	Y+2, r25	; 0x02
    11aa:	ab 83       	std	Y+3, r26	; 0x03
    11ac:	bc 83       	std	Y+4, r27	; 0x04
    11ae:	20 e0       	ldi	r18, 0x00	; 0
    11b0:	30 e0       	ldi	r19, 0x00	; 0
    11b2:	4a ef       	ldi	r20, 0xFA	; 250
    11b4:	54 e4       	ldi	r21, 0x44	; 68
    11b6:	69 81       	ldd	r22, Y+1	; 0x01
    11b8:	7a 81       	ldd	r23, Y+2	; 0x02
    11ba:	8b 81       	ldd	r24, Y+3	; 0x03
    11bc:	9c 81       	ldd	r25, Y+4	; 0x04
    11be:	0e 94 4c 17 	call	0x2e98	; 0x2e98 <__mulsf3>
    11c2:	dc 01       	movw	r26, r24
    11c4:	cb 01       	movw	r24, r22
    11c6:	8d 83       	std	Y+5, r24	; 0x05
    11c8:	9e 83       	std	Y+6, r25	; 0x06
    11ca:	af 83       	std	Y+7, r26	; 0x07
    11cc:	b8 87       	std	Y+8, r27	; 0x08
    11ce:	20 e0       	ldi	r18, 0x00	; 0
    11d0:	30 e0       	ldi	r19, 0x00	; 0
    11d2:	40 e8       	ldi	r20, 0x80	; 128
    11d4:	5f e3       	ldi	r21, 0x3F	; 63
    11d6:	6d 81       	ldd	r22, Y+5	; 0x05
    11d8:	7e 81       	ldd	r23, Y+6	; 0x06
    11da:	8f 81       	ldd	r24, Y+7	; 0x07
    11dc:	98 85       	ldd	r25, Y+8	; 0x08
    11de:	0e 94 9e 16 	call	0x2d3c	; 0x2d3c <__cmpsf2>
    11e2:	88 23       	and	r24, r24
    11e4:	2c f4       	brge	.+10     	; 0x11f0 <Floor2_Enter_Int_func+0x9c>
    11e6:	81 e0       	ldi	r24, 0x01	; 1
    11e8:	90 e0       	ldi	r25, 0x00	; 0
    11ea:	9a 87       	std	Y+10, r25	; 0x0a
    11ec:	89 87       	std	Y+9, r24	; 0x09
    11ee:	3f c0       	rjmp	.+126    	; 0x126e <Floor2_Enter_Int_func+0x11a>
    11f0:	20 e0       	ldi	r18, 0x00	; 0
    11f2:	3f ef       	ldi	r19, 0xFF	; 255
    11f4:	4f e7       	ldi	r20, 0x7F	; 127
    11f6:	57 e4       	ldi	r21, 0x47	; 71
    11f8:	6d 81       	ldd	r22, Y+5	; 0x05
    11fa:	7e 81       	ldd	r23, Y+6	; 0x06
    11fc:	8f 81       	ldd	r24, Y+7	; 0x07
    11fe:	98 85       	ldd	r25, Y+8	; 0x08
    1200:	0e 94 47 17 	call	0x2e8e	; 0x2e8e <__gesf2>
    1204:	18 16       	cp	r1, r24
    1206:	4c f5       	brge	.+82     	; 0x125a <Floor2_Enter_Int_func+0x106>
    1208:	20 e0       	ldi	r18, 0x00	; 0
    120a:	30 e0       	ldi	r19, 0x00	; 0
    120c:	40 e2       	ldi	r20, 0x20	; 32
    120e:	51 e4       	ldi	r21, 0x41	; 65
    1210:	69 81       	ldd	r22, Y+1	; 0x01
    1212:	7a 81       	ldd	r23, Y+2	; 0x02
    1214:	8b 81       	ldd	r24, Y+3	; 0x03
    1216:	9c 81       	ldd	r25, Y+4	; 0x04
    1218:	0e 94 4c 17 	call	0x2e98	; 0x2e98 <__mulsf3>
    121c:	dc 01       	movw	r26, r24
    121e:	cb 01       	movw	r24, r22
    1220:	bc 01       	movw	r22, r24
    1222:	cd 01       	movw	r24, r26
    1224:	0e 94 a3 16 	call	0x2d46	; 0x2d46 <__fixunssfsi>
    1228:	dc 01       	movw	r26, r24
    122a:	cb 01       	movw	r24, r22
    122c:	9a 87       	std	Y+10, r25	; 0x0a
    122e:	89 87       	std	Y+9, r24	; 0x09
    1230:	0f c0       	rjmp	.+30     	; 0x1250 <Floor2_Enter_Int_func+0xfc>
    1232:	88 ec       	ldi	r24, 0xC8	; 200
    1234:	90 e0       	ldi	r25, 0x00	; 0
    1236:	9c 87       	std	Y+12, r25	; 0x0c
    1238:	8b 87       	std	Y+11, r24	; 0x0b
    123a:	8b 85       	ldd	r24, Y+11	; 0x0b
    123c:	9c 85       	ldd	r25, Y+12	; 0x0c
    123e:	01 97       	sbiw	r24, 0x01	; 1
    1240:	f1 f7       	brne	.-4      	; 0x123e <Floor2_Enter_Int_func+0xea>
    1242:	9c 87       	std	Y+12, r25	; 0x0c
    1244:	8b 87       	std	Y+11, r24	; 0x0b
    1246:	89 85       	ldd	r24, Y+9	; 0x09
    1248:	9a 85       	ldd	r25, Y+10	; 0x0a
    124a:	01 97       	sbiw	r24, 0x01	; 1
    124c:	9a 87       	std	Y+10, r25	; 0x0a
    124e:	89 87       	std	Y+9, r24	; 0x09
    1250:	89 85       	ldd	r24, Y+9	; 0x09
    1252:	9a 85       	ldd	r25, Y+10	; 0x0a
    1254:	89 2b       	or	r24, r25
    1256:	69 f7       	brne	.-38     	; 0x1232 <Floor2_Enter_Int_func+0xde>
    1258:	14 c0       	rjmp	.+40     	; 0x1282 <Floor2_Enter_Int_func+0x12e>
    125a:	6d 81       	ldd	r22, Y+5	; 0x05
    125c:	7e 81       	ldd	r23, Y+6	; 0x06
    125e:	8f 81       	ldd	r24, Y+7	; 0x07
    1260:	98 85       	ldd	r25, Y+8	; 0x08
    1262:	0e 94 a3 16 	call	0x2d46	; 0x2d46 <__fixunssfsi>
    1266:	dc 01       	movw	r26, r24
    1268:	cb 01       	movw	r24, r22
    126a:	9a 87       	std	Y+10, r25	; 0x0a
    126c:	89 87       	std	Y+9, r24	; 0x09
    126e:	89 85       	ldd	r24, Y+9	; 0x09
    1270:	9a 85       	ldd	r25, Y+10	; 0x0a
    1272:	9e 87       	std	Y+14, r25	; 0x0e
    1274:	8d 87       	std	Y+13, r24	; 0x0d
    1276:	8d 85       	ldd	r24, Y+13	; 0x0d
    1278:	9e 85       	ldd	r25, Y+14	; 0x0e
    127a:	01 97       	sbiw	r24, 0x01	; 1
    127c:	f1 f7       	brne	.-4      	; 0x127a <Floor2_Enter_Int_func+0x126>
    127e:	9e 87       	std	Y+14, r25	; 0x0e
    1280:	8d 87       	std	Y+13, r24	; 0x0d
    1282:	00 00       	nop
    1284:	2e 96       	adiw	r28, 0x0e	; 14
    1286:	0f b6       	in	r0, 0x3f	; 63
    1288:	f8 94       	cli
    128a:	de bf       	out	0x3e, r29	; 62
    128c:	0f be       	out	0x3f, r0	; 63
    128e:	cd bf       	out	0x3d, r28	; 61
    1290:	df 91       	pop	r29
    1292:	cf 91       	pop	r28
    1294:	08 95       	ret

00001296 <Floor2_Exit_Int_func>:
    1296:	cf 93       	push	r28
    1298:	df 93       	push	r29
    129a:	cd b7       	in	r28, 0x3d	; 61
    129c:	de b7       	in	r29, 0x3e	; 62
    129e:	2e 97       	sbiw	r28, 0x0e	; 14
    12a0:	0f b6       	in	r0, 0x3f	; 63
    12a2:	f8 94       	cli
    12a4:	de bf       	out	0x3e, r29	; 62
    12a6:	0f be       	out	0x3f, r0	; 63
    12a8:	cd bf       	out	0x3d, r28	; 61
    12aa:	80 91 62 00 	lds	r24, 0x0062	; 0x800062 <floor2>
    12ae:	90 91 63 00 	lds	r25, 0x0063	; 0x800063 <floor2+0x1>
    12b2:	05 97       	sbiw	r24, 0x05	; 5
    12b4:	08 f0       	brcs	.+2      	; 0x12b8 <Floor2_Exit_Int_func+0x22>
    12b6:	84 c0       	rjmp	.+264    	; 0x13c0 <Floor2_Exit_Int_func+0x12a>
    12b8:	80 91 62 00 	lds	r24, 0x0062	; 0x800062 <floor2>
    12bc:	90 91 63 00 	lds	r25, 0x0063	; 0x800063 <floor2+0x1>
    12c0:	01 96       	adiw	r24, 0x01	; 1
    12c2:	90 93 63 00 	sts	0x0063, r25	; 0x800063 <floor2+0x1>
    12c6:	80 93 62 00 	sts	0x0062, r24	; 0x800062 <floor2>
    12ca:	80 91 60 00 	lds	r24, 0x0060	; 0x800060 <__DATA_REGION_ORIGIN__>
    12ce:	90 91 61 00 	lds	r25, 0x0061	; 0x800061 <__DATA_REGION_ORIGIN__+0x1>
    12d2:	01 97       	sbiw	r24, 0x01	; 1
    12d4:	90 93 61 00 	sts	0x0061, r25	; 0x800061 <__DATA_REGION_ORIGIN__+0x1>
    12d8:	80 93 60 00 	sts	0x0060, r24	; 0x800060 <__DATA_REGION_ORIGIN__>
    12dc:	80 e0       	ldi	r24, 0x00	; 0
    12de:	90 e0       	ldi	r25, 0x00	; 0
    12e0:	aa ef       	ldi	r26, 0xFA	; 250
    12e2:	b4 e4       	ldi	r27, 0x44	; 68
    12e4:	89 83       	std	Y+1, r24	; 0x01
    12e6:	9a 83       	std	Y+2, r25	; 0x02
    12e8:	ab 83       	std	Y+3, r26	; 0x03
    12ea:	bc 83       	std	Y+4, r27	; 0x04
    12ec:	20 e0       	ldi	r18, 0x00	; 0
    12ee:	30 e0       	ldi	r19, 0x00	; 0
    12f0:	4a ef       	ldi	r20, 0xFA	; 250
    12f2:	54 e4       	ldi	r21, 0x44	; 68
    12f4:	69 81       	ldd	r22, Y+1	; 0x01
    12f6:	7a 81       	ldd	r23, Y+2	; 0x02
    12f8:	8b 81       	ldd	r24, Y+3	; 0x03
    12fa:	9c 81       	ldd	r25, Y+4	; 0x04
    12fc:	0e 94 4c 17 	call	0x2e98	; 0x2e98 <__mulsf3>
    1300:	dc 01       	movw	r26, r24
    1302:	cb 01       	movw	r24, r22
    1304:	8d 83       	std	Y+5, r24	; 0x05
    1306:	9e 83       	std	Y+6, r25	; 0x06
    1308:	af 83       	std	Y+7, r26	; 0x07
    130a:	b8 87       	std	Y+8, r27	; 0x08
    130c:	20 e0       	ldi	r18, 0x00	; 0
    130e:	30 e0       	ldi	r19, 0x00	; 0
    1310:	40 e8       	ldi	r20, 0x80	; 128
    1312:	5f e3       	ldi	r21, 0x3F	; 63
    1314:	6d 81       	ldd	r22, Y+5	; 0x05
    1316:	7e 81       	ldd	r23, Y+6	; 0x06
    1318:	8f 81       	ldd	r24, Y+7	; 0x07
    131a:	98 85       	ldd	r25, Y+8	; 0x08
    131c:	0e 94 9e 16 	call	0x2d3c	; 0x2d3c <__cmpsf2>
    1320:	88 23       	and	r24, r24
    1322:	2c f4       	brge	.+10     	; 0x132e <Floor2_Exit_Int_func+0x98>
    1324:	81 e0       	ldi	r24, 0x01	; 1
    1326:	90 e0       	ldi	r25, 0x00	; 0
    1328:	9a 87       	std	Y+10, r25	; 0x0a
    132a:	89 87       	std	Y+9, r24	; 0x09
    132c:	3f c0       	rjmp	.+126    	; 0x13ac <Floor2_Exit_Int_func+0x116>
    132e:	20 e0       	ldi	r18, 0x00	; 0
    1330:	3f ef       	ldi	r19, 0xFF	; 255
    1332:	4f e7       	ldi	r20, 0x7F	; 127
    1334:	57 e4       	ldi	r21, 0x47	; 71
    1336:	6d 81       	ldd	r22, Y+5	; 0x05
    1338:	7e 81       	ldd	r23, Y+6	; 0x06
    133a:	8f 81       	ldd	r24, Y+7	; 0x07
    133c:	98 85       	ldd	r25, Y+8	; 0x08
    133e:	0e 94 47 17 	call	0x2e8e	; 0x2e8e <__gesf2>
    1342:	18 16       	cp	r1, r24
    1344:	4c f5       	brge	.+82     	; 0x1398 <Floor2_Exit_Int_func+0x102>
    1346:	20 e0       	ldi	r18, 0x00	; 0
    1348:	30 e0       	ldi	r19, 0x00	; 0
    134a:	40 e2       	ldi	r20, 0x20	; 32
    134c:	51 e4       	ldi	r21, 0x41	; 65
    134e:	69 81       	ldd	r22, Y+1	; 0x01
    1350:	7a 81       	ldd	r23, Y+2	; 0x02
    1352:	8b 81       	ldd	r24, Y+3	; 0x03
    1354:	9c 81       	ldd	r25, Y+4	; 0x04
    1356:	0e 94 4c 17 	call	0x2e98	; 0x2e98 <__mulsf3>
    135a:	dc 01       	movw	r26, r24
    135c:	cb 01       	movw	r24, r22
    135e:	bc 01       	movw	r22, r24
    1360:	cd 01       	movw	r24, r26
    1362:	0e 94 a3 16 	call	0x2d46	; 0x2d46 <__fixunssfsi>
    1366:	dc 01       	movw	r26, r24
    1368:	cb 01       	movw	r24, r22
    136a:	9a 87       	std	Y+10, r25	; 0x0a
    136c:	89 87       	std	Y+9, r24	; 0x09
    136e:	0f c0       	rjmp	.+30     	; 0x138e <Floor2_Exit_Int_func+0xf8>
    1370:	88 ec       	ldi	r24, 0xC8	; 200
    1372:	90 e0       	ldi	r25, 0x00	; 0
    1374:	9c 87       	std	Y+12, r25	; 0x0c
    1376:	8b 87       	std	Y+11, r24	; 0x0b
    1378:	8b 85       	ldd	r24, Y+11	; 0x0b
    137a:	9c 85       	ldd	r25, Y+12	; 0x0c
    137c:	01 97       	sbiw	r24, 0x01	; 1
    137e:	f1 f7       	brne	.-4      	; 0x137c <Floor2_Exit_Int_func+0xe6>
    1380:	9c 87       	std	Y+12, r25	; 0x0c
    1382:	8b 87       	std	Y+11, r24	; 0x0b
    1384:	89 85       	ldd	r24, Y+9	; 0x09
    1386:	9a 85       	ldd	r25, Y+10	; 0x0a
    1388:	01 97       	sbiw	r24, 0x01	; 1
    138a:	9a 87       	std	Y+10, r25	; 0x0a
    138c:	89 87       	std	Y+9, r24	; 0x09
    138e:	89 85       	ldd	r24, Y+9	; 0x09
    1390:	9a 85       	ldd	r25, Y+10	; 0x0a
    1392:	89 2b       	or	r24, r25
    1394:	69 f7       	brne	.-38     	; 0x1370 <Floor2_Exit_Int_func+0xda>
    1396:	14 c0       	rjmp	.+40     	; 0x13c0 <Floor2_Exit_Int_func+0x12a>
    1398:	6d 81       	ldd	r22, Y+5	; 0x05
    139a:	7e 81       	ldd	r23, Y+6	; 0x06
    139c:	8f 81       	ldd	r24, Y+7	; 0x07
    139e:	98 85       	ldd	r25, Y+8	; 0x08
    13a0:	0e 94 a3 16 	call	0x2d46	; 0x2d46 <__fixunssfsi>
    13a4:	dc 01       	movw	r26, r24
    13a6:	cb 01       	movw	r24, r22
    13a8:	9a 87       	std	Y+10, r25	; 0x0a
    13aa:	89 87       	std	Y+9, r24	; 0x09
    13ac:	89 85       	ldd	r24, Y+9	; 0x09
    13ae:	9a 85       	ldd	r25, Y+10	; 0x0a
    13b0:	9e 87       	std	Y+14, r25	; 0x0e
    13b2:	8d 87       	std	Y+13, r24	; 0x0d
    13b4:	8d 85       	ldd	r24, Y+13	; 0x0d
    13b6:	9e 85       	ldd	r25, Y+14	; 0x0e
    13b8:	01 97       	sbiw	r24, 0x01	; 1
    13ba:	f1 f7       	brne	.-4      	; 0x13b8 <Floor2_Exit_Int_func+0x122>
    13bc:	9e 87       	std	Y+14, r25	; 0x0e
    13be:	8d 87       	std	Y+13, r24	; 0x0d
    13c0:	00 00       	nop
    13c2:	2e 96       	adiw	r28, 0x0e	; 14
    13c4:	0f b6       	in	r0, 0x3f	; 63
    13c6:	f8 94       	cli
    13c8:	de bf       	out	0x3e, r29	; 62
    13ca:	0f be       	out	0x3f, r0	; 63
    13cc:	cd bf       	out	0x3d, r28	; 61
    13ce:	df 91       	pop	r29
    13d0:	cf 91       	pop	r28
    13d2:	08 95       	ret

000013d4 <main>:
    13d4:	0f 93       	push	r16
    13d6:	1f 93       	push	r17
    13d8:	cf 93       	push	r28
    13da:	df 93       	push	r29
    13dc:	cd b7       	in	r28, 0x3d	; 61
    13de:	de b7       	in	r29, 0x3e	; 62
    13e0:	c6 54       	subi	r28, 0x46	; 70
    13e2:	d1 09       	sbc	r29, r1
    13e4:	0f b6       	in	r0, 0x3f	; 63
    13e6:	f8 94       	cli
    13e8:	de bf       	out	0x3e, r29	; 62
    13ea:	0f be       	out	0x3f, r0	; 63
    13ec:	cd bf       	out	0x3d, r28	; 61
    13ee:	0e 94 ed 0c 	call	0x19da	; 0x19da <DIO_Init>
    13f2:	0e 94 ad 04 	call	0x95a	; 0x95a <LCD_Init>
    13f6:	0e 94 c8 10 	call	0x2190	; 0x2190 <EXI_Init>
    13fa:	62 e0       	ldi	r22, 0x02	; 2
    13fc:	84 e0       	ldi	r24, 0x04	; 4
    13fe:	0e 94 92 13 	call	0x2724	; 0x2724 <Timer1_Init>
    1402:	82 e0       	ldi	r24, 0x02	; 2
    1404:	0e 94 82 14 	call	0x2904	; 0x2904 <Timer1_OCRA1Mode>
    1408:	82 e0       	ldi	r24, 0x02	; 2
    140a:	0e 94 eb 14 	call	0x29d6	; 0x29d6 <Timer1_OCRB1Mode>
    140e:	8a e4       	ldi	r24, 0x4A	; 74
    1410:	90 e0       	ldi	r25, 0x00	; 0
    1412:	2f e1       	ldi	r18, 0x1F	; 31
    1414:	3e e4       	ldi	r19, 0x4E	; 78
    1416:	fc 01       	movw	r30, r24
    1418:	31 83       	std	Z+1, r19	; 0x01
    141a:	20 83       	st	Z, r18
    141c:	60 e0       	ldi	r22, 0x00	; 0
    141e:	78 e0       	ldi	r23, 0x08	; 8
    1420:	80 e0       	ldi	r24, 0x00	; 0
    1422:	0e 94 12 12 	call	0x2424	; 0x2424 <EXI_SetCallBack>
    1426:	60 e5       	ldi	r22, 0x50	; 80
    1428:	77 e0       	ldi	r23, 0x07	; 7
    142a:	81 e0       	ldi	r24, 0x01	; 1
    142c:	0e 94 12 12 	call	0x2424	; 0x2424 <EXI_SetCallBack>
    1430:	6a ea       	ldi	r22, 0xAA	; 170
    1432:	78 e0       	ldi	r23, 0x08	; 8
    1434:	82 e0       	ldi	r24, 0x02	; 2
    1436:	0e 94 12 12 	call	0x2424	; 0x2424 <EXI_SetCallBack>
    143a:	80 e0       	ldi	r24, 0x00	; 0
    143c:	0e 94 dc 10 	call	0x21b8	; 0x21b8 <EXI_Enable>
    1440:	81 e0       	ldi	r24, 0x01	; 1
    1442:	0e 94 dc 10 	call	0x21b8	; 0x21b8 <EXI_Enable>
    1446:	82 e0       	ldi	r24, 0x02	; 2
    1448:	0e 94 dc 10 	call	0x21b8	; 0x21b8 <EXI_Enable>
    144c:	84 e6       	ldi	r24, 0x64	; 100
    144e:	90 e0       	ldi	r25, 0x00	; 0
    1450:	0e 94 4b 06 	call	0xc96	; 0xc96 <LCD_WriteString>
    1454:	80 e0       	ldi	r24, 0x00	; 0
    1456:	90 e0       	ldi	r25, 0x00	; 0
    1458:	a8 e4       	ldi	r26, 0x48	; 72
    145a:	b3 e4       	ldi	r27, 0x43	; 67
    145c:	89 83       	std	Y+1, r24	; 0x01
    145e:	9a 83       	std	Y+2, r25	; 0x02
    1460:	ab 83       	std	Y+3, r26	; 0x03
    1462:	bc 83       	std	Y+4, r27	; 0x04
    1464:	20 e0       	ldi	r18, 0x00	; 0
    1466:	30 e0       	ldi	r19, 0x00	; 0
    1468:	4a ef       	ldi	r20, 0xFA	; 250
    146a:	54 e4       	ldi	r21, 0x44	; 68
    146c:	69 81       	ldd	r22, Y+1	; 0x01
    146e:	7a 81       	ldd	r23, Y+2	; 0x02
    1470:	8b 81       	ldd	r24, Y+3	; 0x03
    1472:	9c 81       	ldd	r25, Y+4	; 0x04
    1474:	0e 94 4c 17 	call	0x2e98	; 0x2e98 <__mulsf3>
    1478:	dc 01       	movw	r26, r24
    147a:	cb 01       	movw	r24, r22
    147c:	9e 01       	movw	r18, r28
    147e:	23 5c       	subi	r18, 0xC3	; 195
    1480:	3f 4f       	sbci	r19, 0xFF	; 255
    1482:	f9 01       	movw	r30, r18
    1484:	80 83       	st	Z, r24
    1486:	91 83       	std	Z+1, r25	; 0x01
    1488:	a2 83       	std	Z+2, r26	; 0x02
    148a:	b3 83       	std	Z+3, r27	; 0x03
    148c:	20 e0       	ldi	r18, 0x00	; 0
    148e:	30 e0       	ldi	r19, 0x00	; 0
    1490:	40 e8       	ldi	r20, 0x80	; 128
    1492:	5f e3       	ldi	r21, 0x3F	; 63
    1494:	ce 01       	movw	r24, r28
    1496:	cd 96       	adiw	r24, 0x3d	; 61
    1498:	fc 01       	movw	r30, r24
    149a:	60 81       	ld	r22, Z
    149c:	71 81       	ldd	r23, Z+1	; 0x01
    149e:	82 81       	ldd	r24, Z+2	; 0x02
    14a0:	93 81       	ldd	r25, Z+3	; 0x03
    14a2:	0e 94 9e 16 	call	0x2d3c	; 0x2d3c <__cmpsf2>
    14a6:	88 23       	and	r24, r24
    14a8:	4c f4       	brge	.+18     	; 0x14bc <main+0xe8>
    14aa:	ce 01       	movw	r24, r28
    14ac:	8f 5b       	subi	r24, 0xBF	; 191
    14ae:	9f 4f       	sbci	r25, 0xFF	; 255
    14b0:	21 e0       	ldi	r18, 0x01	; 1
    14b2:	30 e0       	ldi	r19, 0x00	; 0
    14b4:	fc 01       	movw	r30, r24
    14b6:	31 83       	std	Z+1, r19	; 0x01
    14b8:	20 83       	st	Z, r18
    14ba:	67 c0       	rjmp	.+206    	; 0x158a <main+0x1b6>
    14bc:	20 e0       	ldi	r18, 0x00	; 0
    14be:	3f ef       	ldi	r19, 0xFF	; 255
    14c0:	4f e7       	ldi	r20, 0x7F	; 127
    14c2:	57 e4       	ldi	r21, 0x47	; 71
    14c4:	ce 01       	movw	r24, r28
    14c6:	cd 96       	adiw	r24, 0x3d	; 61
    14c8:	fc 01       	movw	r30, r24
    14ca:	60 81       	ld	r22, Z
    14cc:	71 81       	ldd	r23, Z+1	; 0x01
    14ce:	82 81       	ldd	r24, Z+2	; 0x02
    14d0:	93 81       	ldd	r25, Z+3	; 0x03
    14d2:	0e 94 47 17 	call	0x2e8e	; 0x2e8e <__gesf2>
    14d6:	18 16       	cp	r1, r24
    14d8:	0c f0       	brlt	.+2      	; 0x14dc <main+0x108>
    14da:	46 c0       	rjmp	.+140    	; 0x1568 <main+0x194>
    14dc:	20 e0       	ldi	r18, 0x00	; 0
    14de:	30 e0       	ldi	r19, 0x00	; 0
    14e0:	40 e2       	ldi	r20, 0x20	; 32
    14e2:	51 e4       	ldi	r21, 0x41	; 65
    14e4:	69 81       	ldd	r22, Y+1	; 0x01
    14e6:	7a 81       	ldd	r23, Y+2	; 0x02
    14e8:	8b 81       	ldd	r24, Y+3	; 0x03
    14ea:	9c 81       	ldd	r25, Y+4	; 0x04
    14ec:	0e 94 4c 17 	call	0x2e98	; 0x2e98 <__mulsf3>
    14f0:	dc 01       	movw	r26, r24
    14f2:	cb 01       	movw	r24, r22
    14f4:	8e 01       	movw	r16, r28
    14f6:	0f 5b       	subi	r16, 0xBF	; 191
    14f8:	1f 4f       	sbci	r17, 0xFF	; 255
    14fa:	bc 01       	movw	r22, r24
    14fc:	cd 01       	movw	r24, r26
    14fe:	0e 94 a3 16 	call	0x2d46	; 0x2d46 <__fixunssfsi>
    1502:	dc 01       	movw	r26, r24
    1504:	cb 01       	movw	r24, r22
    1506:	f8 01       	movw	r30, r16
    1508:	91 83       	std	Z+1, r25	; 0x01
    150a:	80 83       	st	Z, r24
    150c:	24 c0       	rjmp	.+72     	; 0x1556 <main+0x182>
    150e:	ce 01       	movw	r24, r28
    1510:	8d 5b       	subi	r24, 0xBD	; 189
    1512:	9f 4f       	sbci	r25, 0xFF	; 255
    1514:	28 ec       	ldi	r18, 0xC8	; 200
    1516:	30 e0       	ldi	r19, 0x00	; 0
    1518:	fc 01       	movw	r30, r24
    151a:	31 83       	std	Z+1, r19	; 0x01
    151c:	20 83       	st	Z, r18
    151e:	ce 01       	movw	r24, r28
    1520:	8d 5b       	subi	r24, 0xBD	; 189
    1522:	9f 4f       	sbci	r25, 0xFF	; 255
    1524:	fc 01       	movw	r30, r24
    1526:	80 81       	ld	r24, Z
    1528:	91 81       	ldd	r25, Z+1	; 0x01
    152a:	01 97       	sbiw	r24, 0x01	; 1
    152c:	f1 f7       	brne	.-4      	; 0x152a <main+0x156>
    152e:	9e 01       	movw	r18, r28
    1530:	2d 5b       	subi	r18, 0xBD	; 189
    1532:	3f 4f       	sbci	r19, 0xFF	; 255
    1534:	f9 01       	movw	r30, r18
    1536:	91 83       	std	Z+1, r25	; 0x01
    1538:	80 83       	st	Z, r24
    153a:	ce 01       	movw	r24, r28
    153c:	8f 5b       	subi	r24, 0xBF	; 191
    153e:	9f 4f       	sbci	r25, 0xFF	; 255
    1540:	9e 01       	movw	r18, r28
    1542:	2f 5b       	subi	r18, 0xBF	; 191
    1544:	3f 4f       	sbci	r19, 0xFF	; 255
    1546:	f9 01       	movw	r30, r18
    1548:	20 81       	ld	r18, Z
    154a:	31 81       	ldd	r19, Z+1	; 0x01
    154c:	21 50       	subi	r18, 0x01	; 1
    154e:	31 09       	sbc	r19, r1
    1550:	fc 01       	movw	r30, r24
    1552:	31 83       	std	Z+1, r19	; 0x01
    1554:	20 83       	st	Z, r18
    1556:	ce 01       	movw	r24, r28
    1558:	8f 5b       	subi	r24, 0xBF	; 191
    155a:	9f 4f       	sbci	r25, 0xFF	; 255
    155c:	fc 01       	movw	r30, r24
    155e:	80 81       	ld	r24, Z
    1560:	91 81       	ldd	r25, Z+1	; 0x01
    1562:	89 2b       	or	r24, r25
    1564:	a1 f6       	brne	.-88     	; 0x150e <main+0x13a>
    1566:	2b c0       	rjmp	.+86     	; 0x15be <main+0x1ea>
    1568:	8e 01       	movw	r16, r28
    156a:	0f 5b       	subi	r16, 0xBF	; 191
    156c:	1f 4f       	sbci	r17, 0xFF	; 255
    156e:	ce 01       	movw	r24, r28
    1570:	cd 96       	adiw	r24, 0x3d	; 61
    1572:	fc 01       	movw	r30, r24
    1574:	60 81       	ld	r22, Z
    1576:	71 81       	ldd	r23, Z+1	; 0x01
    1578:	82 81       	ldd	r24, Z+2	; 0x02
    157a:	93 81       	ldd	r25, Z+3	; 0x03
    157c:	0e 94 a3 16 	call	0x2d46	; 0x2d46 <__fixunssfsi>
    1580:	dc 01       	movw	r26, r24
    1582:	cb 01       	movw	r24, r22
    1584:	f8 01       	movw	r30, r16
    1586:	91 83       	std	Z+1, r25	; 0x01
    1588:	80 83       	st	Z, r24
    158a:	ce 01       	movw	r24, r28
    158c:	8b 5b       	subi	r24, 0xBB	; 187
    158e:	9f 4f       	sbci	r25, 0xFF	; 255
    1590:	9e 01       	movw	r18, r28
    1592:	2f 5b       	subi	r18, 0xBF	; 191
    1594:	3f 4f       	sbci	r19, 0xFF	; 255
    1596:	f9 01       	movw	r30, r18
    1598:	20 81       	ld	r18, Z
    159a:	31 81       	ldd	r19, Z+1	; 0x01
    159c:	fc 01       	movw	r30, r24
    159e:	31 83       	std	Z+1, r19	; 0x01
    15a0:	20 83       	st	Z, r18
    15a2:	ce 01       	movw	r24, r28
    15a4:	8b 5b       	subi	r24, 0xBB	; 187
    15a6:	9f 4f       	sbci	r25, 0xFF	; 255
    15a8:	fc 01       	movw	r30, r24
    15aa:	80 81       	ld	r24, Z
    15ac:	91 81       	ldd	r25, Z+1	; 0x01
    15ae:	01 97       	sbiw	r24, 0x01	; 1
    15b0:	f1 f7       	brne	.-4      	; 0x15ae <main+0x1da>
    15b2:	9e 01       	movw	r18, r28
    15b4:	2b 5b       	subi	r18, 0xBB	; 187
    15b6:	3f 4f       	sbci	r19, 0xFF	; 255
    15b8:	f9 01       	movw	r30, r18
    15ba:	91 83       	std	Z+1, r25	; 0x01
    15bc:	80 83       	st	Z, r24
    15be:	0e 94 c2 05 	call	0xb84	; 0xb84 <LCD_Clear>
    15c2:	87 e7       	ldi	r24, 0x77	; 119
    15c4:	90 e0       	ldi	r25, 0x00	; 0
    15c6:	0e 94 4b 06 	call	0xc96	; 0xc96 <LCD_WriteString>
    15ca:	80 e0       	ldi	r24, 0x00	; 0
    15cc:	90 e0       	ldi	r25, 0x00	; 0
    15ce:	a8 e4       	ldi	r26, 0x48	; 72
    15d0:	b3 e4       	ldi	r27, 0x43	; 67
    15d2:	8d 83       	std	Y+5, r24	; 0x05
    15d4:	9e 83       	std	Y+6, r25	; 0x06
    15d6:	af 83       	std	Y+7, r26	; 0x07
    15d8:	b8 87       	std	Y+8, r27	; 0x08
    15da:	20 e0       	ldi	r18, 0x00	; 0
    15dc:	30 e0       	ldi	r19, 0x00	; 0
    15de:	4a ef       	ldi	r20, 0xFA	; 250
    15e0:	54 e4       	ldi	r21, 0x44	; 68
    15e2:	6d 81       	ldd	r22, Y+5	; 0x05
    15e4:	7e 81       	ldd	r23, Y+6	; 0x06
    15e6:	8f 81       	ldd	r24, Y+7	; 0x07
    15e8:	98 85       	ldd	r25, Y+8	; 0x08
    15ea:	0e 94 4c 17 	call	0x2e98	; 0x2e98 <__mulsf3>
    15ee:	dc 01       	movw	r26, r24
    15f0:	cb 01       	movw	r24, r22
    15f2:	8b ab       	std	Y+51, r24	; 0x33
    15f4:	9c ab       	std	Y+52, r25	; 0x34
    15f6:	ad ab       	std	Y+53, r26	; 0x35
    15f8:	be ab       	std	Y+54, r27	; 0x36
    15fa:	20 e0       	ldi	r18, 0x00	; 0
    15fc:	30 e0       	ldi	r19, 0x00	; 0
    15fe:	40 e8       	ldi	r20, 0x80	; 128
    1600:	5f e3       	ldi	r21, 0x3F	; 63
    1602:	6b a9       	ldd	r22, Y+51	; 0x33
    1604:	7c a9       	ldd	r23, Y+52	; 0x34
    1606:	8d a9       	ldd	r24, Y+53	; 0x35
    1608:	9e a9       	ldd	r25, Y+54	; 0x36
    160a:	0e 94 9e 16 	call	0x2d3c	; 0x2d3c <__cmpsf2>
    160e:	88 23       	and	r24, r24
    1610:	2c f4       	brge	.+10     	; 0x161c <main+0x248>
    1612:	81 e0       	ldi	r24, 0x01	; 1
    1614:	90 e0       	ldi	r25, 0x00	; 0
    1616:	98 af       	std	Y+56, r25	; 0x38
    1618:	8f ab       	std	Y+55, r24	; 0x37
    161a:	3f c0       	rjmp	.+126    	; 0x169a <main+0x2c6>
    161c:	20 e0       	ldi	r18, 0x00	; 0
    161e:	3f ef       	ldi	r19, 0xFF	; 255
    1620:	4f e7       	ldi	r20, 0x7F	; 127
    1622:	57 e4       	ldi	r21, 0x47	; 71
    1624:	6b a9       	ldd	r22, Y+51	; 0x33
    1626:	7c a9       	ldd	r23, Y+52	; 0x34
    1628:	8d a9       	ldd	r24, Y+53	; 0x35
    162a:	9e a9       	ldd	r25, Y+54	; 0x36
    162c:	0e 94 47 17 	call	0x2e8e	; 0x2e8e <__gesf2>
    1630:	18 16       	cp	r1, r24
    1632:	4c f5       	brge	.+82     	; 0x1686 <main+0x2b2>
    1634:	20 e0       	ldi	r18, 0x00	; 0
    1636:	30 e0       	ldi	r19, 0x00	; 0
    1638:	40 e2       	ldi	r20, 0x20	; 32
    163a:	51 e4       	ldi	r21, 0x41	; 65
    163c:	6d 81       	ldd	r22, Y+5	; 0x05
    163e:	7e 81       	ldd	r23, Y+6	; 0x06
    1640:	8f 81       	ldd	r24, Y+7	; 0x07
    1642:	98 85       	ldd	r25, Y+8	; 0x08
    1644:	0e 94 4c 17 	call	0x2e98	; 0x2e98 <__mulsf3>
    1648:	dc 01       	movw	r26, r24
    164a:	cb 01       	movw	r24, r22
    164c:	bc 01       	movw	r22, r24
    164e:	cd 01       	movw	r24, r26
    1650:	0e 94 a3 16 	call	0x2d46	; 0x2d46 <__fixunssfsi>
    1654:	dc 01       	movw	r26, r24
    1656:	cb 01       	movw	r24, r22
    1658:	98 af       	std	Y+56, r25	; 0x38
    165a:	8f ab       	std	Y+55, r24	; 0x37
    165c:	0f c0       	rjmp	.+30     	; 0x167c <main+0x2a8>
    165e:	88 ec       	ldi	r24, 0xC8	; 200
    1660:	90 e0       	ldi	r25, 0x00	; 0
    1662:	9a af       	std	Y+58, r25	; 0x3a
    1664:	89 af       	std	Y+57, r24	; 0x39
    1666:	89 ad       	ldd	r24, Y+57	; 0x39
    1668:	9a ad       	ldd	r25, Y+58	; 0x3a
    166a:	01 97       	sbiw	r24, 0x01	; 1
    166c:	f1 f7       	brne	.-4      	; 0x166a <main+0x296>
    166e:	9a af       	std	Y+58, r25	; 0x3a
    1670:	89 af       	std	Y+57, r24	; 0x39
    1672:	8f a9       	ldd	r24, Y+55	; 0x37
    1674:	98 ad       	ldd	r25, Y+56	; 0x38
    1676:	01 97       	sbiw	r24, 0x01	; 1
    1678:	98 af       	std	Y+56, r25	; 0x38
    167a:	8f ab       	std	Y+55, r24	; 0x37
    167c:	8f a9       	ldd	r24, Y+55	; 0x37
    167e:	98 ad       	ldd	r25, Y+56	; 0x38
    1680:	89 2b       	or	r24, r25
    1682:	69 f7       	brne	.-38     	; 0x165e <main+0x28a>
    1684:	14 c0       	rjmp	.+40     	; 0x16ae <main+0x2da>
    1686:	6b a9       	ldd	r22, Y+51	; 0x33
    1688:	7c a9       	ldd	r23, Y+52	; 0x34
    168a:	8d a9       	ldd	r24, Y+53	; 0x35
    168c:	9e a9       	ldd	r25, Y+54	; 0x36
    168e:	0e 94 a3 16 	call	0x2d46	; 0x2d46 <__fixunssfsi>
    1692:	dc 01       	movw	r26, r24
    1694:	cb 01       	movw	r24, r22
    1696:	98 af       	std	Y+56, r25	; 0x38
    1698:	8f ab       	std	Y+55, r24	; 0x37
    169a:	8f a9       	ldd	r24, Y+55	; 0x37
    169c:	98 ad       	ldd	r25, Y+56	; 0x38
    169e:	9c af       	std	Y+60, r25	; 0x3c
    16a0:	8b af       	std	Y+59, r24	; 0x3b
    16a2:	8b ad       	ldd	r24, Y+59	; 0x3b
    16a4:	9c ad       	ldd	r25, Y+60	; 0x3c
    16a6:	01 97       	sbiw	r24, 0x01	; 1
    16a8:	f1 f7       	brne	.-4      	; 0x16a6 <main+0x2d2>
    16aa:	9c af       	std	Y+60, r25	; 0x3c
    16ac:	8b af       	std	Y+59, r24	; 0x3b
    16ae:	0e 94 c2 05 	call	0xb84	; 0xb84 <LCD_Clear>
    16b2:	89 e8       	ldi	r24, 0x89	; 137
    16b4:	90 e0       	ldi	r25, 0x00	; 0
    16b6:	0e 94 4b 06 	call	0xc96	; 0xc96 <LCD_WriteString>
    16ba:	80 e0       	ldi	r24, 0x00	; 0
    16bc:	90 e0       	ldi	r25, 0x00	; 0
    16be:	a8 e4       	ldi	r26, 0x48	; 72
    16c0:	b3 e4       	ldi	r27, 0x43	; 67
    16c2:	89 87       	std	Y+9, r24	; 0x09
    16c4:	9a 87       	std	Y+10, r25	; 0x0a
    16c6:	ab 87       	std	Y+11, r26	; 0x0b
    16c8:	bc 87       	std	Y+12, r27	; 0x0c
    16ca:	20 e0       	ldi	r18, 0x00	; 0
    16cc:	30 e0       	ldi	r19, 0x00	; 0
    16ce:	4a ef       	ldi	r20, 0xFA	; 250
    16d0:	54 e4       	ldi	r21, 0x44	; 68
    16d2:	69 85       	ldd	r22, Y+9	; 0x09
    16d4:	7a 85       	ldd	r23, Y+10	; 0x0a
    16d6:	8b 85       	ldd	r24, Y+11	; 0x0b
    16d8:	9c 85       	ldd	r25, Y+12	; 0x0c
    16da:	0e 94 4c 17 	call	0x2e98	; 0x2e98 <__mulsf3>
    16de:	dc 01       	movw	r26, r24
    16e0:	cb 01       	movw	r24, r22
    16e2:	89 a7       	std	Y+41, r24	; 0x29
    16e4:	9a a7       	std	Y+42, r25	; 0x2a
    16e6:	ab a7       	std	Y+43, r26	; 0x2b
    16e8:	bc a7       	std	Y+44, r27	; 0x2c
    16ea:	20 e0       	ldi	r18, 0x00	; 0
    16ec:	30 e0       	ldi	r19, 0x00	; 0
    16ee:	40 e8       	ldi	r20, 0x80	; 128
    16f0:	5f e3       	ldi	r21, 0x3F	; 63
    16f2:	69 a5       	ldd	r22, Y+41	; 0x29
    16f4:	7a a5       	ldd	r23, Y+42	; 0x2a
    16f6:	8b a5       	ldd	r24, Y+43	; 0x2b
    16f8:	9c a5       	ldd	r25, Y+44	; 0x2c
    16fa:	0e 94 9e 16 	call	0x2d3c	; 0x2d3c <__cmpsf2>
    16fe:	88 23       	and	r24, r24
    1700:	2c f4       	brge	.+10     	; 0x170c <main+0x338>
    1702:	81 e0       	ldi	r24, 0x01	; 1
    1704:	90 e0       	ldi	r25, 0x00	; 0
    1706:	9e a7       	std	Y+46, r25	; 0x2e
    1708:	8d a7       	std	Y+45, r24	; 0x2d
    170a:	3f c0       	rjmp	.+126    	; 0x178a <main+0x3b6>
    170c:	20 e0       	ldi	r18, 0x00	; 0
    170e:	3f ef       	ldi	r19, 0xFF	; 255
    1710:	4f e7       	ldi	r20, 0x7F	; 127
    1712:	57 e4       	ldi	r21, 0x47	; 71
    1714:	69 a5       	ldd	r22, Y+41	; 0x29
    1716:	7a a5       	ldd	r23, Y+42	; 0x2a
    1718:	8b a5       	ldd	r24, Y+43	; 0x2b
    171a:	9c a5       	ldd	r25, Y+44	; 0x2c
    171c:	0e 94 47 17 	call	0x2e8e	; 0x2e8e <__gesf2>
    1720:	18 16       	cp	r1, r24
    1722:	4c f5       	brge	.+82     	; 0x1776 <main+0x3a2>
    1724:	20 e0       	ldi	r18, 0x00	; 0
    1726:	30 e0       	ldi	r19, 0x00	; 0
    1728:	40 e2       	ldi	r20, 0x20	; 32
    172a:	51 e4       	ldi	r21, 0x41	; 65
    172c:	69 85       	ldd	r22, Y+9	; 0x09
    172e:	7a 85       	ldd	r23, Y+10	; 0x0a
    1730:	8b 85       	ldd	r24, Y+11	; 0x0b
    1732:	9c 85       	ldd	r25, Y+12	; 0x0c
    1734:	0e 94 4c 17 	call	0x2e98	; 0x2e98 <__mulsf3>
    1738:	dc 01       	movw	r26, r24
    173a:	cb 01       	movw	r24, r22
    173c:	bc 01       	movw	r22, r24
    173e:	cd 01       	movw	r24, r26
    1740:	0e 94 a3 16 	call	0x2d46	; 0x2d46 <__fixunssfsi>
    1744:	dc 01       	movw	r26, r24
    1746:	cb 01       	movw	r24, r22
    1748:	9e a7       	std	Y+46, r25	; 0x2e
    174a:	8d a7       	std	Y+45, r24	; 0x2d
    174c:	0f c0       	rjmp	.+30     	; 0x176c <main+0x398>
    174e:	88 ec       	ldi	r24, 0xC8	; 200
    1750:	90 e0       	ldi	r25, 0x00	; 0
    1752:	98 ab       	std	Y+48, r25	; 0x30
    1754:	8f a7       	std	Y+47, r24	; 0x2f
    1756:	8f a5       	ldd	r24, Y+47	; 0x2f
    1758:	98 a9       	ldd	r25, Y+48	; 0x30
    175a:	01 97       	sbiw	r24, 0x01	; 1
    175c:	f1 f7       	brne	.-4      	; 0x175a <main+0x386>
    175e:	98 ab       	std	Y+48, r25	; 0x30
    1760:	8f a7       	std	Y+47, r24	; 0x2f
    1762:	8d a5       	ldd	r24, Y+45	; 0x2d
    1764:	9e a5       	ldd	r25, Y+46	; 0x2e
    1766:	01 97       	sbiw	r24, 0x01	; 1
    1768:	9e a7       	std	Y+46, r25	; 0x2e
    176a:	8d a7       	std	Y+45, r24	; 0x2d
    176c:	8d a5       	ldd	r24, Y+45	; 0x2d
    176e:	9e a5       	ldd	r25, Y+46	; 0x2e
    1770:	89 2b       	or	r24, r25
    1772:	69 f7       	brne	.-38     	; 0x174e <main+0x37a>
    1774:	14 c0       	rjmp	.+40     	; 0x179e <main+0x3ca>
    1776:	69 a5       	ldd	r22, Y+41	; 0x29
    1778:	7a a5       	ldd	r23, Y+42	; 0x2a
    177a:	8b a5       	ldd	r24, Y+43	; 0x2b
    177c:	9c a5       	ldd	r25, Y+44	; 0x2c
    177e:	0e 94 a3 16 	call	0x2d46	; 0x2d46 <__fixunssfsi>
    1782:	dc 01       	movw	r26, r24
    1784:	cb 01       	movw	r24, r22
    1786:	9e a7       	std	Y+46, r25	; 0x2e
    1788:	8d a7       	std	Y+45, r24	; 0x2d
    178a:	8d a5       	ldd	r24, Y+45	; 0x2d
    178c:	9e a5       	ldd	r25, Y+46	; 0x2e
    178e:	9a ab       	std	Y+50, r25	; 0x32
    1790:	89 ab       	std	Y+49, r24	; 0x31
    1792:	89 a9       	ldd	r24, Y+49	; 0x31
    1794:	9a a9       	ldd	r25, Y+50	; 0x32
    1796:	01 97       	sbiw	r24, 0x01	; 1
    1798:	f1 f7       	brne	.-4      	; 0x1796 <main+0x3c2>
    179a:	9a ab       	std	Y+50, r25	; 0x32
    179c:	89 ab       	std	Y+49, r24	; 0x31
    179e:	0e 94 c2 05 	call	0xb84	; 0xb84 <LCD_Clear>
    17a2:	88 e9       	ldi	r24, 0x98	; 152
    17a4:	90 e0       	ldi	r25, 0x00	; 0
    17a6:	0e 94 4b 06 	call	0xc96	; 0xc96 <LCD_WriteString>
    17aa:	80 e0       	ldi	r24, 0x00	; 0
    17ac:	90 e0       	ldi	r25, 0x00	; 0
    17ae:	a8 e4       	ldi	r26, 0x48	; 72
    17b0:	b3 e4       	ldi	r27, 0x43	; 67
    17b2:	8d 87       	std	Y+13, r24	; 0x0d
    17b4:	9e 87       	std	Y+14, r25	; 0x0e
    17b6:	af 87       	std	Y+15, r26	; 0x0f
    17b8:	b8 8b       	std	Y+16, r27	; 0x10
    17ba:	20 e0       	ldi	r18, 0x00	; 0
    17bc:	30 e0       	ldi	r19, 0x00	; 0
    17be:	4a ef       	ldi	r20, 0xFA	; 250
    17c0:	54 e4       	ldi	r21, 0x44	; 68
    17c2:	6d 85       	ldd	r22, Y+13	; 0x0d
    17c4:	7e 85       	ldd	r23, Y+14	; 0x0e
    17c6:	8f 85       	ldd	r24, Y+15	; 0x0f
    17c8:	98 89       	ldd	r25, Y+16	; 0x10
    17ca:	0e 94 4c 17 	call	0x2e98	; 0x2e98 <__mulsf3>
    17ce:	dc 01       	movw	r26, r24
    17d0:	cb 01       	movw	r24, r22
    17d2:	8f 8f       	std	Y+31, r24	; 0x1f
    17d4:	98 a3       	std	Y+32, r25	; 0x20
    17d6:	a9 a3       	std	Y+33, r26	; 0x21
    17d8:	ba a3       	std	Y+34, r27	; 0x22
    17da:	20 e0       	ldi	r18, 0x00	; 0
    17dc:	30 e0       	ldi	r19, 0x00	; 0
    17de:	40 e8       	ldi	r20, 0x80	; 128
    17e0:	5f e3       	ldi	r21, 0x3F	; 63
    17e2:	6f 8d       	ldd	r22, Y+31	; 0x1f
    17e4:	78 a1       	ldd	r23, Y+32	; 0x20
    17e6:	89 a1       	ldd	r24, Y+33	; 0x21
    17e8:	9a a1       	ldd	r25, Y+34	; 0x22
    17ea:	0e 94 9e 16 	call	0x2d3c	; 0x2d3c <__cmpsf2>
    17ee:	88 23       	and	r24, r24
    17f0:	2c f4       	brge	.+10     	; 0x17fc <main+0x428>
    17f2:	81 e0       	ldi	r24, 0x01	; 1
    17f4:	90 e0       	ldi	r25, 0x00	; 0
    17f6:	9c a3       	std	Y+36, r25	; 0x24
    17f8:	8b a3       	std	Y+35, r24	; 0x23
    17fa:	3f c0       	rjmp	.+126    	; 0x187a <main+0x4a6>
    17fc:	20 e0       	ldi	r18, 0x00	; 0
    17fe:	3f ef       	ldi	r19, 0xFF	; 255
    1800:	4f e7       	ldi	r20, 0x7F	; 127
    1802:	57 e4       	ldi	r21, 0x47	; 71
    1804:	6f 8d       	ldd	r22, Y+31	; 0x1f
    1806:	78 a1       	ldd	r23, Y+32	; 0x20
    1808:	89 a1       	ldd	r24, Y+33	; 0x21
    180a:	9a a1       	ldd	r25, Y+34	; 0x22
    180c:	0e 94 47 17 	call	0x2e8e	; 0x2e8e <__gesf2>
    1810:	18 16       	cp	r1, r24
    1812:	4c f5       	brge	.+82     	; 0x1866 <main+0x492>
    1814:	20 e0       	ldi	r18, 0x00	; 0
    1816:	30 e0       	ldi	r19, 0x00	; 0
    1818:	40 e2       	ldi	r20, 0x20	; 32
    181a:	51 e4       	ldi	r21, 0x41	; 65
    181c:	6d 85       	ldd	r22, Y+13	; 0x0d
    181e:	7e 85       	ldd	r23, Y+14	; 0x0e
    1820:	8f 85       	ldd	r24, Y+15	; 0x0f
    1822:	98 89       	ldd	r25, Y+16	; 0x10
    1824:	0e 94 4c 17 	call	0x2e98	; 0x2e98 <__mulsf3>
    1828:	dc 01       	movw	r26, r24
    182a:	cb 01       	movw	r24, r22
    182c:	bc 01       	movw	r22, r24
    182e:	cd 01       	movw	r24, r26
    1830:	0e 94 a3 16 	call	0x2d46	; 0x2d46 <__fixunssfsi>
    1834:	dc 01       	movw	r26, r24
    1836:	cb 01       	movw	r24, r22
    1838:	9c a3       	std	Y+36, r25	; 0x24
    183a:	8b a3       	std	Y+35, r24	; 0x23
    183c:	0f c0       	rjmp	.+30     	; 0x185c <main+0x488>
    183e:	88 ec       	ldi	r24, 0xC8	; 200
    1840:	90 e0       	ldi	r25, 0x00	; 0
    1842:	9e a3       	std	Y+38, r25	; 0x26
    1844:	8d a3       	std	Y+37, r24	; 0x25
    1846:	8d a1       	ldd	r24, Y+37	; 0x25
    1848:	9e a1       	ldd	r25, Y+38	; 0x26
    184a:	01 97       	sbiw	r24, 0x01	; 1
    184c:	f1 f7       	brne	.-4      	; 0x184a <main+0x476>
    184e:	9e a3       	std	Y+38, r25	; 0x26
    1850:	8d a3       	std	Y+37, r24	; 0x25
    1852:	8b a1       	ldd	r24, Y+35	; 0x23
    1854:	9c a1       	ldd	r25, Y+36	; 0x24
    1856:	01 97       	sbiw	r24, 0x01	; 1
    1858:	9c a3       	std	Y+36, r25	; 0x24
    185a:	8b a3       	std	Y+35, r24	; 0x23
    185c:	8b a1       	ldd	r24, Y+35	; 0x23
    185e:	9c a1       	ldd	r25, Y+36	; 0x24
    1860:	89 2b       	or	r24, r25
    1862:	69 f7       	brne	.-38     	; 0x183e <main+0x46a>
    1864:	14 c0       	rjmp	.+40     	; 0x188e <main+0x4ba>
    1866:	6f 8d       	ldd	r22, Y+31	; 0x1f
    1868:	78 a1       	ldd	r23, Y+32	; 0x20
    186a:	89 a1       	ldd	r24, Y+33	; 0x21
    186c:	9a a1       	ldd	r25, Y+34	; 0x22
    186e:	0e 94 a3 16 	call	0x2d46	; 0x2d46 <__fixunssfsi>
    1872:	dc 01       	movw	r26, r24
    1874:	cb 01       	movw	r24, r22
    1876:	9c a3       	std	Y+36, r25	; 0x24
    1878:	8b a3       	std	Y+35, r24	; 0x23
    187a:	8b a1       	ldd	r24, Y+35	; 0x23
    187c:	9c a1       	ldd	r25, Y+36	; 0x24
    187e:	98 a7       	std	Y+40, r25	; 0x28
    1880:	8f a3       	std	Y+39, r24	; 0x27
    1882:	8f a1       	ldd	r24, Y+39	; 0x27
    1884:	98 a5       	ldd	r25, Y+40	; 0x28
    1886:	01 97       	sbiw	r24, 0x01	; 1
    1888:	f1 f7       	brne	.-4      	; 0x1886 <main+0x4b2>
    188a:	98 a7       	std	Y+40, r25	; 0x28
    188c:	8f a3       	std	Y+39, r24	; 0x27
    188e:	0e 94 c2 05 	call	0xb84	; 0xb84 <LCD_Clear>
    1892:	80 e0       	ldi	r24, 0x00	; 0
    1894:	0e 94 24 07 	call	0xe48	; 0xe48 <Servo_Position>
    1898:	80 e0       	ldi	r24, 0x00	; 0
    189a:	90 e0       	ldi	r25, 0x00	; 0
    189c:	aa e7       	ldi	r26, 0x7A	; 122
    189e:	b4 e4       	ldi	r27, 0x44	; 68
    18a0:	89 8b       	std	Y+17, r24	; 0x11
    18a2:	9a 8b       	std	Y+18, r25	; 0x12
    18a4:	ab 8b       	std	Y+19, r26	; 0x13
    18a6:	bc 8b       	std	Y+20, r27	; 0x14
    18a8:	20 e0       	ldi	r18, 0x00	; 0
    18aa:	30 e0       	ldi	r19, 0x00	; 0
    18ac:	4a ef       	ldi	r20, 0xFA	; 250
    18ae:	54 e4       	ldi	r21, 0x44	; 68
    18b0:	69 89       	ldd	r22, Y+17	; 0x11
    18b2:	7a 89       	ldd	r23, Y+18	; 0x12
    18b4:	8b 89       	ldd	r24, Y+19	; 0x13
    18b6:	9c 89       	ldd	r25, Y+20	; 0x14
    18b8:	0e 94 4c 17 	call	0x2e98	; 0x2e98 <__mulsf3>
    18bc:	dc 01       	movw	r26, r24
    18be:	cb 01       	movw	r24, r22
    18c0:	8d 8b       	std	Y+21, r24	; 0x15
    18c2:	9e 8b       	std	Y+22, r25	; 0x16
    18c4:	af 8b       	std	Y+23, r26	; 0x17
    18c6:	b8 8f       	std	Y+24, r27	; 0x18
    18c8:	20 e0       	ldi	r18, 0x00	; 0
    18ca:	30 e0       	ldi	r19, 0x00	; 0
    18cc:	40 e8       	ldi	r20, 0x80	; 128
    18ce:	5f e3       	ldi	r21, 0x3F	; 63
    18d0:	6d 89       	ldd	r22, Y+21	; 0x15
    18d2:	7e 89       	ldd	r23, Y+22	; 0x16
    18d4:	8f 89       	ldd	r24, Y+23	; 0x17
    18d6:	98 8d       	ldd	r25, Y+24	; 0x18
    18d8:	0e 94 9e 16 	call	0x2d3c	; 0x2d3c <__cmpsf2>
    18dc:	88 23       	and	r24, r24
    18de:	2c f4       	brge	.+10     	; 0x18ea <main+0x516>
    18e0:	81 e0       	ldi	r24, 0x01	; 1
    18e2:	90 e0       	ldi	r25, 0x00	; 0
    18e4:	9a 8f       	std	Y+26, r25	; 0x1a
    18e6:	89 8f       	std	Y+25, r24	; 0x19
    18e8:	3f c0       	rjmp	.+126    	; 0x1968 <main+0x594>
    18ea:	20 e0       	ldi	r18, 0x00	; 0
    18ec:	3f ef       	ldi	r19, 0xFF	; 255
    18ee:	4f e7       	ldi	r20, 0x7F	; 127
    18f0:	57 e4       	ldi	r21, 0x47	; 71
    18f2:	6d 89       	ldd	r22, Y+21	; 0x15
    18f4:	7e 89       	ldd	r23, Y+22	; 0x16
    18f6:	8f 89       	ldd	r24, Y+23	; 0x17
    18f8:	98 8d       	ldd	r25, Y+24	; 0x18
    18fa:	0e 94 47 17 	call	0x2e8e	; 0x2e8e <__gesf2>
    18fe:	18 16       	cp	r1, r24
    1900:	4c f5       	brge	.+82     	; 0x1954 <main+0x580>
    1902:	20 e0       	ldi	r18, 0x00	; 0
    1904:	30 e0       	ldi	r19, 0x00	; 0
    1906:	40 e2       	ldi	r20, 0x20	; 32
    1908:	51 e4       	ldi	r21, 0x41	; 65
    190a:	69 89       	ldd	r22, Y+17	; 0x11
    190c:	7a 89       	ldd	r23, Y+18	; 0x12
    190e:	8b 89       	ldd	r24, Y+19	; 0x13
    1910:	9c 89       	ldd	r25, Y+20	; 0x14
    1912:	0e 94 4c 17 	call	0x2e98	; 0x2e98 <__mulsf3>
    1916:	dc 01       	movw	r26, r24
    1918:	cb 01       	movw	r24, r22
    191a:	bc 01       	movw	r22, r24
    191c:	cd 01       	movw	r24, r26
    191e:	0e 94 a3 16 	call	0x2d46	; 0x2d46 <__fixunssfsi>
    1922:	dc 01       	movw	r26, r24
    1924:	cb 01       	movw	r24, r22
    1926:	9a 8f       	std	Y+26, r25	; 0x1a
    1928:	89 8f       	std	Y+25, r24	; 0x19
    192a:	0f c0       	rjmp	.+30     	; 0x194a <main+0x576>
    192c:	88 ec       	ldi	r24, 0xC8	; 200
    192e:	90 e0       	ldi	r25, 0x00	; 0
    1930:	9c 8f       	std	Y+28, r25	; 0x1c
    1932:	8b 8f       	std	Y+27, r24	; 0x1b
    1934:	8b 8d       	ldd	r24, Y+27	; 0x1b
    1936:	9c 8d       	ldd	r25, Y+28	; 0x1c
    1938:	01 97       	sbiw	r24, 0x01	; 1
    193a:	f1 f7       	brne	.-4      	; 0x1938 <main+0x564>
    193c:	9c 8f       	std	Y+28, r25	; 0x1c
    193e:	8b 8f       	std	Y+27, r24	; 0x1b
    1940:	89 8d       	ldd	r24, Y+25	; 0x19
    1942:	9a 8d       	ldd	r25, Y+26	; 0x1a
    1944:	01 97       	sbiw	r24, 0x01	; 1
    1946:	9a 8f       	std	Y+26, r25	; 0x1a
    1948:	89 8f       	std	Y+25, r24	; 0x19
    194a:	89 8d       	ldd	r24, Y+25	; 0x19
    194c:	9a 8d       	ldd	r25, Y+26	; 0x1a
    194e:	89 2b       	or	r24, r25
    1950:	69 f7       	brne	.-38     	; 0x192c <main+0x558>
    1952:	14 c0       	rjmp	.+40     	; 0x197c <main+0x5a8>
    1954:	6d 89       	ldd	r22, Y+21	; 0x15
    1956:	7e 89       	ldd	r23, Y+22	; 0x16
    1958:	8f 89       	ldd	r24, Y+23	; 0x17
    195a:	98 8d       	ldd	r25, Y+24	; 0x18
    195c:	0e 94 a3 16 	call	0x2d46	; 0x2d46 <__fixunssfsi>
    1960:	dc 01       	movw	r26, r24
    1962:	cb 01       	movw	r24, r22
    1964:	9a 8f       	std	Y+26, r25	; 0x1a
    1966:	89 8f       	std	Y+25, r24	; 0x19
    1968:	89 8d       	ldd	r24, Y+25	; 0x19
    196a:	9a 8d       	ldd	r25, Y+26	; 0x1a
    196c:	9e 8f       	std	Y+30, r25	; 0x1e
    196e:	8d 8f       	std	Y+29, r24	; 0x1d
    1970:	8d 8d       	ldd	r24, Y+29	; 0x1d
    1972:	9e 8d       	ldd	r25, Y+30	; 0x1e
    1974:	01 97       	sbiw	r24, 0x01	; 1
    1976:	f1 f7       	brne	.-4      	; 0x1974 <main+0x5a0>
    1978:	9e 8f       	std	Y+30, r25	; 0x1e
    197a:	8d 8f       	std	Y+29, r24	; 0x1d
    197c:	78 94       	sei
    197e:	61 e0       	ldi	r22, 0x01	; 1
    1980:	81 e0       	ldi	r24, 0x01	; 1
    1982:	0e 94 75 06 	call	0xcea	; 0xcea <LCD_SetCursor>
    1986:	89 ea       	ldi	r24, 0xA9	; 169
    1988:	90 e0       	ldi	r25, 0x00	; 0
    198a:	0e 94 4b 06 	call	0xc96	; 0xc96 <LCD_WriteString>
    198e:	80 91 60 00 	lds	r24, 0x0060	; 0x800060 <__DATA_REGION_ORIGIN__>
    1992:	90 91 61 00 	lds	r25, 0x0061	; 0x800061 <__DATA_REGION_ORIGIN__+0x1>
    1996:	cc 01       	movw	r24, r24
    1998:	a0 e0       	ldi	r26, 0x00	; 0
    199a:	b0 e0       	ldi	r27, 0x00	; 0
    199c:	bc 01       	movw	r22, r24
    199e:	cd 01       	movw	r24, r26
    19a0:	0e 94 93 06 	call	0xd26	; 0xd26 <LCD_WriteNumber>
    19a4:	61 e0       	ldi	r22, 0x01	; 1
    19a6:	82 e0       	ldi	r24, 0x02	; 2
    19a8:	0e 94 75 06 	call	0xcea	; 0xcea <LCD_SetCursor>
    19ac:	85 eb       	ldi	r24, 0xB5	; 181
    19ae:	90 e0       	ldi	r25, 0x00	; 0
    19b0:	0e 94 4b 06 	call	0xc96	; 0xc96 <LCD_WriteString>
    19b4:	80 91 62 00 	lds	r24, 0x0062	; 0x800062 <floor2>
    19b8:	90 91 63 00 	lds	r25, 0x0063	; 0x800063 <floor2+0x1>
    19bc:	cc 01       	movw	r24, r24
    19be:	a0 e0       	ldi	r26, 0x00	; 0
    19c0:	b0 e0       	ldi	r27, 0x00	; 0
    19c2:	bc 01       	movw	r22, r24
    19c4:	cd 01       	movw	r24, r26
    19c6:	0e 94 93 06 	call	0xd26	; 0xd26 <LCD_WriteNumber>
    19ca:	8b e0       	ldi	r24, 0x0B	; 11
    19cc:	0e 94 5a 10 	call	0x20b4	; 0x20b4 <DIO_ReadPin>
    19d0:	88 23       	and	r24, r24
    19d2:	a9 f6       	brne	.-86     	; 0x197e <main+0x5aa>
    19d4:	0e 94 4b 09 	call	0x1296	; 0x1296 <Floor2_Exit_Int_func>
    19d8:	d2 cf       	rjmp	.-92     	; 0x197e <main+0x5aa>

000019da <DIO_Init>:
    19da:	cf 93       	push	r28
    19dc:	df 93       	push	r29
    19de:	1f 92       	push	r1
    19e0:	cd b7       	in	r28, 0x3d	; 61
    19e2:	de b7       	in	r29, 0x3e	; 62
    19e4:	19 82       	std	Y+1, r1	; 0x01
    19e6:	0e c0       	rjmp	.+28     	; 0x1a04 <DIO_Init+0x2a>
    19e8:	89 81       	ldd	r24, Y+1	; 0x01
    19ea:	88 2f       	mov	r24, r24
    19ec:	90 e0       	ldi	r25, 0x00	; 0
    19ee:	8f 53       	subi	r24, 0x3F	; 63
    19f0:	9f 4f       	sbci	r25, 0xFF	; 255
    19f2:	fc 01       	movw	r30, r24
    19f4:	80 81       	ld	r24, Z
    19f6:	68 2f       	mov	r22, r24
    19f8:	89 81       	ldd	r24, Y+1	; 0x01
    19fa:	0e 94 0a 0d 	call	0x1a14	; 0x1a14 <DIO_InitPin>
    19fe:	89 81       	ldd	r24, Y+1	; 0x01
    1a00:	8f 5f       	subi	r24, 0xFF	; 255
    1a02:	89 83       	std	Y+1, r24	; 0x01
    1a04:	89 81       	ldd	r24, Y+1	; 0x01
    1a06:	80 32       	cpi	r24, 0x20	; 32
    1a08:	78 f3       	brcs	.-34     	; 0x19e8 <DIO_Init+0xe>
    1a0a:	00 00       	nop
    1a0c:	0f 90       	pop	r0
    1a0e:	df 91       	pop	r29
    1a10:	cf 91       	pop	r28
    1a12:	08 95       	ret

00001a14 <DIO_InitPin>:
    1a14:	cf 93       	push	r28
    1a16:	df 93       	push	r29
    1a18:	00 d0       	rcall	.+0      	; 0x1a1a <DIO_InitPin+0x6>
    1a1a:	00 d0       	rcall	.+0      	; 0x1a1c <DIO_InitPin+0x8>
    1a1c:	cd b7       	in	r28, 0x3d	; 61
    1a1e:	de b7       	in	r29, 0x3e	; 62
    1a20:	8b 83       	std	Y+3, r24	; 0x03
    1a22:	6c 83       	std	Y+4, r22	; 0x04
    1a24:	8b 81       	ldd	r24, Y+3	; 0x03
    1a26:	86 95       	lsr	r24
    1a28:	86 95       	lsr	r24
    1a2a:	86 95       	lsr	r24
    1a2c:	89 83       	std	Y+1, r24	; 0x01
    1a2e:	8b 81       	ldd	r24, Y+3	; 0x03
    1a30:	87 70       	andi	r24, 0x07	; 7
    1a32:	8a 83       	std	Y+2, r24	; 0x02
    1a34:	8c 81       	ldd	r24, Y+4	; 0x04
    1a36:	88 2f       	mov	r24, r24
    1a38:	90 e0       	ldi	r25, 0x00	; 0
    1a3a:	81 30       	cpi	r24, 0x01	; 1
    1a3c:	91 05       	cpc	r25, r1
    1a3e:	09 f4       	brne	.+2      	; 0x1a42 <DIO_InitPin+0x2e>
    1a40:	c4 c0       	rjmp	.+392    	; 0x1bca <DIO_InitPin+0x1b6>
    1a42:	82 30       	cpi	r24, 0x02	; 2
    1a44:	91 05       	cpc	r25, r1
    1a46:	09 f4       	brne	.+2      	; 0x1a4a <DIO_InitPin+0x36>
    1a48:	81 c1       	rjmp	.+770    	; 0x1d4c <DIO_InitPin+0x338>
    1a4a:	89 2b       	or	r24, r25
    1a4c:	09 f0       	breq	.+2      	; 0x1a50 <DIO_InitPin+0x3c>
    1a4e:	3b c2       	rjmp	.+1142   	; 0x1ec6 <DIO_InitPin+0x4b2>
    1a50:	89 81       	ldd	r24, Y+1	; 0x01
    1a52:	88 2f       	mov	r24, r24
    1a54:	90 e0       	ldi	r25, 0x00	; 0
    1a56:	81 30       	cpi	r24, 0x01	; 1
    1a58:	91 05       	cpc	r25, r1
    1a5a:	c1 f1       	breq	.+112    	; 0x1acc <DIO_InitPin+0xb8>
    1a5c:	82 30       	cpi	r24, 0x02	; 2
    1a5e:	91 05       	cpc	r25, r1
    1a60:	1c f4       	brge	.+6      	; 0x1a68 <DIO_InitPin+0x54>
    1a62:	89 2b       	or	r24, r25
    1a64:	49 f0       	breq	.+18     	; 0x1a78 <DIO_InitPin+0x64>
    1a66:	2f c2       	rjmp	.+1118   	; 0x1ec6 <DIO_InitPin+0x4b2>
    1a68:	82 30       	cpi	r24, 0x02	; 2
    1a6a:	91 05       	cpc	r25, r1
    1a6c:	09 f4       	brne	.+2      	; 0x1a70 <DIO_InitPin+0x5c>
    1a6e:	58 c0       	rjmp	.+176    	; 0x1b20 <DIO_InitPin+0x10c>
    1a70:	03 97       	sbiw	r24, 0x03	; 3
    1a72:	09 f4       	brne	.+2      	; 0x1a76 <DIO_InitPin+0x62>
    1a74:	7f c0       	rjmp	.+254    	; 0x1b74 <DIO_InitPin+0x160>
    1a76:	27 c2       	rjmp	.+1102   	; 0x1ec6 <DIO_InitPin+0x4b2>
    1a78:	8a e3       	ldi	r24, 0x3A	; 58
    1a7a:	90 e0       	ldi	r25, 0x00	; 0
    1a7c:	2a e3       	ldi	r18, 0x3A	; 58
    1a7e:	30 e0       	ldi	r19, 0x00	; 0
    1a80:	f9 01       	movw	r30, r18
    1a82:	20 81       	ld	r18, Z
    1a84:	62 2f       	mov	r22, r18
    1a86:	2a 81       	ldd	r18, Y+2	; 0x02
    1a88:	42 2f       	mov	r20, r18
    1a8a:	50 e0       	ldi	r21, 0x00	; 0
    1a8c:	21 e0       	ldi	r18, 0x01	; 1
    1a8e:	30 e0       	ldi	r19, 0x00	; 0
    1a90:	02 c0       	rjmp	.+4      	; 0x1a96 <DIO_InitPin+0x82>
    1a92:	22 0f       	add	r18, r18
    1a94:	33 1f       	adc	r19, r19
    1a96:	4a 95       	dec	r20
    1a98:	e2 f7       	brpl	.-8      	; 0x1a92 <DIO_InitPin+0x7e>
    1a9a:	26 2b       	or	r18, r22
    1a9c:	fc 01       	movw	r30, r24
    1a9e:	20 83       	st	Z, r18
    1aa0:	8b e3       	ldi	r24, 0x3B	; 59
    1aa2:	90 e0       	ldi	r25, 0x00	; 0
    1aa4:	2b e3       	ldi	r18, 0x3B	; 59
    1aa6:	30 e0       	ldi	r19, 0x00	; 0
    1aa8:	f9 01       	movw	r30, r18
    1aaa:	20 81       	ld	r18, Z
    1aac:	62 2f       	mov	r22, r18
    1aae:	2a 81       	ldd	r18, Y+2	; 0x02
    1ab0:	42 2f       	mov	r20, r18
    1ab2:	50 e0       	ldi	r21, 0x00	; 0
    1ab4:	21 e0       	ldi	r18, 0x01	; 1
    1ab6:	30 e0       	ldi	r19, 0x00	; 0
    1ab8:	02 c0       	rjmp	.+4      	; 0x1abe <DIO_InitPin+0xaa>
    1aba:	22 0f       	add	r18, r18
    1abc:	33 1f       	adc	r19, r19
    1abe:	4a 95       	dec	r20
    1ac0:	e2 f7       	brpl	.-8      	; 0x1aba <DIO_InitPin+0xa6>
    1ac2:	20 95       	com	r18
    1ac4:	26 23       	and	r18, r22
    1ac6:	fc 01       	movw	r30, r24
    1ac8:	20 83       	st	Z, r18
    1aca:	7e c0       	rjmp	.+252    	; 0x1bc8 <DIO_InitPin+0x1b4>
    1acc:	87 e3       	ldi	r24, 0x37	; 55
    1ace:	90 e0       	ldi	r25, 0x00	; 0
    1ad0:	27 e3       	ldi	r18, 0x37	; 55
    1ad2:	30 e0       	ldi	r19, 0x00	; 0
    1ad4:	f9 01       	movw	r30, r18
    1ad6:	20 81       	ld	r18, Z
    1ad8:	62 2f       	mov	r22, r18
    1ada:	2a 81       	ldd	r18, Y+2	; 0x02
    1adc:	42 2f       	mov	r20, r18
    1ade:	50 e0       	ldi	r21, 0x00	; 0
    1ae0:	21 e0       	ldi	r18, 0x01	; 1
    1ae2:	30 e0       	ldi	r19, 0x00	; 0
    1ae4:	02 c0       	rjmp	.+4      	; 0x1aea <DIO_InitPin+0xd6>
    1ae6:	22 0f       	add	r18, r18
    1ae8:	33 1f       	adc	r19, r19
    1aea:	4a 95       	dec	r20
    1aec:	e2 f7       	brpl	.-8      	; 0x1ae6 <DIO_InitPin+0xd2>
    1aee:	26 2b       	or	r18, r22
    1af0:	fc 01       	movw	r30, r24
    1af2:	20 83       	st	Z, r18
    1af4:	88 e3       	ldi	r24, 0x38	; 56
    1af6:	90 e0       	ldi	r25, 0x00	; 0
    1af8:	28 e3       	ldi	r18, 0x38	; 56
    1afa:	30 e0       	ldi	r19, 0x00	; 0
    1afc:	f9 01       	movw	r30, r18
    1afe:	20 81       	ld	r18, Z
    1b00:	62 2f       	mov	r22, r18
    1b02:	2a 81       	ldd	r18, Y+2	; 0x02
    1b04:	42 2f       	mov	r20, r18
    1b06:	50 e0       	ldi	r21, 0x00	; 0
    1b08:	21 e0       	ldi	r18, 0x01	; 1
    1b0a:	30 e0       	ldi	r19, 0x00	; 0
    1b0c:	02 c0       	rjmp	.+4      	; 0x1b12 <DIO_InitPin+0xfe>
    1b0e:	22 0f       	add	r18, r18
    1b10:	33 1f       	adc	r19, r19
    1b12:	4a 95       	dec	r20
    1b14:	e2 f7       	brpl	.-8      	; 0x1b0e <DIO_InitPin+0xfa>
    1b16:	20 95       	com	r18
    1b18:	26 23       	and	r18, r22
    1b1a:	fc 01       	movw	r30, r24
    1b1c:	20 83       	st	Z, r18
    1b1e:	54 c0       	rjmp	.+168    	; 0x1bc8 <DIO_InitPin+0x1b4>
    1b20:	84 e3       	ldi	r24, 0x34	; 52
    1b22:	90 e0       	ldi	r25, 0x00	; 0
    1b24:	24 e3       	ldi	r18, 0x34	; 52
    1b26:	30 e0       	ldi	r19, 0x00	; 0
    1b28:	f9 01       	movw	r30, r18
    1b2a:	20 81       	ld	r18, Z
    1b2c:	62 2f       	mov	r22, r18
    1b2e:	2a 81       	ldd	r18, Y+2	; 0x02
    1b30:	42 2f       	mov	r20, r18
    1b32:	50 e0       	ldi	r21, 0x00	; 0
    1b34:	21 e0       	ldi	r18, 0x01	; 1
    1b36:	30 e0       	ldi	r19, 0x00	; 0
    1b38:	02 c0       	rjmp	.+4      	; 0x1b3e <DIO_InitPin+0x12a>
    1b3a:	22 0f       	add	r18, r18
    1b3c:	33 1f       	adc	r19, r19
    1b3e:	4a 95       	dec	r20
    1b40:	e2 f7       	brpl	.-8      	; 0x1b3a <DIO_InitPin+0x126>
    1b42:	26 2b       	or	r18, r22
    1b44:	fc 01       	movw	r30, r24
    1b46:	20 83       	st	Z, r18
    1b48:	85 e3       	ldi	r24, 0x35	; 53
    1b4a:	90 e0       	ldi	r25, 0x00	; 0
    1b4c:	25 e3       	ldi	r18, 0x35	; 53
    1b4e:	30 e0       	ldi	r19, 0x00	; 0
    1b50:	f9 01       	movw	r30, r18
    1b52:	20 81       	ld	r18, Z
    1b54:	62 2f       	mov	r22, r18
    1b56:	2a 81       	ldd	r18, Y+2	; 0x02
    1b58:	42 2f       	mov	r20, r18
    1b5a:	50 e0       	ldi	r21, 0x00	; 0
    1b5c:	21 e0       	ldi	r18, 0x01	; 1
    1b5e:	30 e0       	ldi	r19, 0x00	; 0
    1b60:	02 c0       	rjmp	.+4      	; 0x1b66 <DIO_InitPin+0x152>
    1b62:	22 0f       	add	r18, r18
    1b64:	33 1f       	adc	r19, r19
    1b66:	4a 95       	dec	r20
    1b68:	e2 f7       	brpl	.-8      	; 0x1b62 <DIO_InitPin+0x14e>
    1b6a:	20 95       	com	r18
    1b6c:	26 23       	and	r18, r22
    1b6e:	fc 01       	movw	r30, r24
    1b70:	20 83       	st	Z, r18
    1b72:	2a c0       	rjmp	.+84     	; 0x1bc8 <DIO_InitPin+0x1b4>
    1b74:	81 e3       	ldi	r24, 0x31	; 49
    1b76:	90 e0       	ldi	r25, 0x00	; 0
    1b78:	21 e3       	ldi	r18, 0x31	; 49
    1b7a:	30 e0       	ldi	r19, 0x00	; 0
    1b7c:	f9 01       	movw	r30, r18
    1b7e:	20 81       	ld	r18, Z
    1b80:	62 2f       	mov	r22, r18
    1b82:	2a 81       	ldd	r18, Y+2	; 0x02
    1b84:	42 2f       	mov	r20, r18
    1b86:	50 e0       	ldi	r21, 0x00	; 0
    1b88:	21 e0       	ldi	r18, 0x01	; 1
    1b8a:	30 e0       	ldi	r19, 0x00	; 0
    1b8c:	02 c0       	rjmp	.+4      	; 0x1b92 <DIO_InitPin+0x17e>
    1b8e:	22 0f       	add	r18, r18
    1b90:	33 1f       	adc	r19, r19
    1b92:	4a 95       	dec	r20
    1b94:	e2 f7       	brpl	.-8      	; 0x1b8e <DIO_InitPin+0x17a>
    1b96:	26 2b       	or	r18, r22
    1b98:	fc 01       	movw	r30, r24
    1b9a:	20 83       	st	Z, r18
    1b9c:	82 e3       	ldi	r24, 0x32	; 50
    1b9e:	90 e0       	ldi	r25, 0x00	; 0
    1ba0:	22 e3       	ldi	r18, 0x32	; 50
    1ba2:	30 e0       	ldi	r19, 0x00	; 0
    1ba4:	f9 01       	movw	r30, r18
    1ba6:	20 81       	ld	r18, Z
    1ba8:	62 2f       	mov	r22, r18
    1baa:	2a 81       	ldd	r18, Y+2	; 0x02
    1bac:	42 2f       	mov	r20, r18
    1bae:	50 e0       	ldi	r21, 0x00	; 0
    1bb0:	21 e0       	ldi	r18, 0x01	; 1
    1bb2:	30 e0       	ldi	r19, 0x00	; 0
    1bb4:	02 c0       	rjmp	.+4      	; 0x1bba <DIO_InitPin+0x1a6>
    1bb6:	22 0f       	add	r18, r18
    1bb8:	33 1f       	adc	r19, r19
    1bba:	4a 95       	dec	r20
    1bbc:	e2 f7       	brpl	.-8      	; 0x1bb6 <DIO_InitPin+0x1a2>
    1bbe:	20 95       	com	r18
    1bc0:	26 23       	and	r18, r22
    1bc2:	fc 01       	movw	r30, r24
    1bc4:	20 83       	st	Z, r18
    1bc6:	00 00       	nop
    1bc8:	7e c1       	rjmp	.+764    	; 0x1ec6 <DIO_InitPin+0x4b2>
    1bca:	89 81       	ldd	r24, Y+1	; 0x01
    1bcc:	88 2f       	mov	r24, r24
    1bce:	90 e0       	ldi	r25, 0x00	; 0
    1bd0:	81 30       	cpi	r24, 0x01	; 1
    1bd2:	91 05       	cpc	r25, r1
    1bd4:	c9 f1       	breq	.+114    	; 0x1c48 <DIO_InitPin+0x234>
    1bd6:	82 30       	cpi	r24, 0x02	; 2
    1bd8:	91 05       	cpc	r25, r1
    1bda:	1c f4       	brge	.+6      	; 0x1be2 <DIO_InitPin+0x1ce>
    1bdc:	89 2b       	or	r24, r25
    1bde:	49 f0       	breq	.+18     	; 0x1bf2 <DIO_InitPin+0x1de>
    1be0:	72 c1       	rjmp	.+740    	; 0x1ec6 <DIO_InitPin+0x4b2>
    1be2:	82 30       	cpi	r24, 0x02	; 2
    1be4:	91 05       	cpc	r25, r1
    1be6:	09 f4       	brne	.+2      	; 0x1bea <DIO_InitPin+0x1d6>
    1be8:	5a c0       	rjmp	.+180    	; 0x1c9e <DIO_InitPin+0x28a>
    1bea:	03 97       	sbiw	r24, 0x03	; 3
    1bec:	09 f4       	brne	.+2      	; 0x1bf0 <DIO_InitPin+0x1dc>
    1bee:	82 c0       	rjmp	.+260    	; 0x1cf4 <DIO_InitPin+0x2e0>
    1bf0:	6a c1       	rjmp	.+724    	; 0x1ec6 <DIO_InitPin+0x4b2>
    1bf2:	8a e3       	ldi	r24, 0x3A	; 58
    1bf4:	90 e0       	ldi	r25, 0x00	; 0
    1bf6:	2a e3       	ldi	r18, 0x3A	; 58
    1bf8:	30 e0       	ldi	r19, 0x00	; 0
    1bfa:	f9 01       	movw	r30, r18
    1bfc:	20 81       	ld	r18, Z
    1bfe:	62 2f       	mov	r22, r18
    1c00:	2a 81       	ldd	r18, Y+2	; 0x02
    1c02:	42 2f       	mov	r20, r18
    1c04:	50 e0       	ldi	r21, 0x00	; 0
    1c06:	21 e0       	ldi	r18, 0x01	; 1
    1c08:	30 e0       	ldi	r19, 0x00	; 0
    1c0a:	02 c0       	rjmp	.+4      	; 0x1c10 <DIO_InitPin+0x1fc>
    1c0c:	22 0f       	add	r18, r18
    1c0e:	33 1f       	adc	r19, r19
    1c10:	4a 95       	dec	r20
    1c12:	e2 f7       	brpl	.-8      	; 0x1c0c <DIO_InitPin+0x1f8>
    1c14:	20 95       	com	r18
    1c16:	26 23       	and	r18, r22
    1c18:	fc 01       	movw	r30, r24
    1c1a:	20 83       	st	Z, r18
    1c1c:	8b e3       	ldi	r24, 0x3B	; 59
    1c1e:	90 e0       	ldi	r25, 0x00	; 0
    1c20:	2b e3       	ldi	r18, 0x3B	; 59
    1c22:	30 e0       	ldi	r19, 0x00	; 0
    1c24:	f9 01       	movw	r30, r18
    1c26:	20 81       	ld	r18, Z
    1c28:	62 2f       	mov	r22, r18
    1c2a:	2a 81       	ldd	r18, Y+2	; 0x02
    1c2c:	42 2f       	mov	r20, r18
    1c2e:	50 e0       	ldi	r21, 0x00	; 0
    1c30:	21 e0       	ldi	r18, 0x01	; 1
    1c32:	30 e0       	ldi	r19, 0x00	; 0
    1c34:	02 c0       	rjmp	.+4      	; 0x1c3a <DIO_InitPin+0x226>
    1c36:	22 0f       	add	r18, r18
    1c38:	33 1f       	adc	r19, r19
    1c3a:	4a 95       	dec	r20
    1c3c:	e2 f7       	brpl	.-8      	; 0x1c36 <DIO_InitPin+0x222>
    1c3e:	20 95       	com	r18
    1c40:	26 23       	and	r18, r22
    1c42:	fc 01       	movw	r30, r24
    1c44:	20 83       	st	Z, r18
    1c46:	81 c0       	rjmp	.+258    	; 0x1d4a <DIO_InitPin+0x336>
    1c48:	87 e3       	ldi	r24, 0x37	; 55
    1c4a:	90 e0       	ldi	r25, 0x00	; 0
    1c4c:	27 e3       	ldi	r18, 0x37	; 55
    1c4e:	30 e0       	ldi	r19, 0x00	; 0
    1c50:	f9 01       	movw	r30, r18
    1c52:	20 81       	ld	r18, Z
    1c54:	62 2f       	mov	r22, r18
    1c56:	2a 81       	ldd	r18, Y+2	; 0x02
    1c58:	42 2f       	mov	r20, r18
    1c5a:	50 e0       	ldi	r21, 0x00	; 0
    1c5c:	21 e0       	ldi	r18, 0x01	; 1
    1c5e:	30 e0       	ldi	r19, 0x00	; 0
    1c60:	02 c0       	rjmp	.+4      	; 0x1c66 <DIO_InitPin+0x252>
    1c62:	22 0f       	add	r18, r18
    1c64:	33 1f       	adc	r19, r19
    1c66:	4a 95       	dec	r20
    1c68:	e2 f7       	brpl	.-8      	; 0x1c62 <DIO_InitPin+0x24e>
    1c6a:	20 95       	com	r18
    1c6c:	26 23       	and	r18, r22
    1c6e:	fc 01       	movw	r30, r24
    1c70:	20 83       	st	Z, r18
    1c72:	88 e3       	ldi	r24, 0x38	; 56
    1c74:	90 e0       	ldi	r25, 0x00	; 0
    1c76:	28 e3       	ldi	r18, 0x38	; 56
    1c78:	30 e0       	ldi	r19, 0x00	; 0
    1c7a:	f9 01       	movw	r30, r18
    1c7c:	20 81       	ld	r18, Z
    1c7e:	62 2f       	mov	r22, r18
    1c80:	2a 81       	ldd	r18, Y+2	; 0x02
    1c82:	42 2f       	mov	r20, r18
    1c84:	50 e0       	ldi	r21, 0x00	; 0
    1c86:	21 e0       	ldi	r18, 0x01	; 1
    1c88:	30 e0       	ldi	r19, 0x00	; 0
    1c8a:	02 c0       	rjmp	.+4      	; 0x1c90 <DIO_InitPin+0x27c>
    1c8c:	22 0f       	add	r18, r18
    1c8e:	33 1f       	adc	r19, r19
    1c90:	4a 95       	dec	r20
    1c92:	e2 f7       	brpl	.-8      	; 0x1c8c <DIO_InitPin+0x278>
    1c94:	20 95       	com	r18
    1c96:	26 23       	and	r18, r22
    1c98:	fc 01       	movw	r30, r24
    1c9a:	20 83       	st	Z, r18
    1c9c:	56 c0       	rjmp	.+172    	; 0x1d4a <DIO_InitPin+0x336>
    1c9e:	84 e3       	ldi	r24, 0x34	; 52
    1ca0:	90 e0       	ldi	r25, 0x00	; 0
    1ca2:	24 e3       	ldi	r18, 0x34	; 52
    1ca4:	30 e0       	ldi	r19, 0x00	; 0
    1ca6:	f9 01       	movw	r30, r18
    1ca8:	20 81       	ld	r18, Z
    1caa:	62 2f       	mov	r22, r18
    1cac:	2a 81       	ldd	r18, Y+2	; 0x02
    1cae:	42 2f       	mov	r20, r18
    1cb0:	50 e0       	ldi	r21, 0x00	; 0
    1cb2:	21 e0       	ldi	r18, 0x01	; 1
    1cb4:	30 e0       	ldi	r19, 0x00	; 0
    1cb6:	02 c0       	rjmp	.+4      	; 0x1cbc <DIO_InitPin+0x2a8>
    1cb8:	22 0f       	add	r18, r18
    1cba:	33 1f       	adc	r19, r19
    1cbc:	4a 95       	dec	r20
    1cbe:	e2 f7       	brpl	.-8      	; 0x1cb8 <DIO_InitPin+0x2a4>
    1cc0:	20 95       	com	r18
    1cc2:	26 23       	and	r18, r22
    1cc4:	fc 01       	movw	r30, r24
    1cc6:	20 83       	st	Z, r18
    1cc8:	85 e3       	ldi	r24, 0x35	; 53
    1cca:	90 e0       	ldi	r25, 0x00	; 0
    1ccc:	25 e3       	ldi	r18, 0x35	; 53
    1cce:	30 e0       	ldi	r19, 0x00	; 0
    1cd0:	f9 01       	movw	r30, r18
    1cd2:	20 81       	ld	r18, Z
    1cd4:	62 2f       	mov	r22, r18
    1cd6:	2a 81       	ldd	r18, Y+2	; 0x02
    1cd8:	42 2f       	mov	r20, r18
    1cda:	50 e0       	ldi	r21, 0x00	; 0
    1cdc:	21 e0       	ldi	r18, 0x01	; 1
    1cde:	30 e0       	ldi	r19, 0x00	; 0
    1ce0:	02 c0       	rjmp	.+4      	; 0x1ce6 <DIO_InitPin+0x2d2>
    1ce2:	22 0f       	add	r18, r18
    1ce4:	33 1f       	adc	r19, r19
    1ce6:	4a 95       	dec	r20
    1ce8:	e2 f7       	brpl	.-8      	; 0x1ce2 <DIO_InitPin+0x2ce>
    1cea:	20 95       	com	r18
    1cec:	26 23       	and	r18, r22
    1cee:	fc 01       	movw	r30, r24
    1cf0:	20 83       	st	Z, r18
    1cf2:	2b c0       	rjmp	.+86     	; 0x1d4a <DIO_InitPin+0x336>
    1cf4:	81 e3       	ldi	r24, 0x31	; 49
    1cf6:	90 e0       	ldi	r25, 0x00	; 0
    1cf8:	21 e3       	ldi	r18, 0x31	; 49
    1cfa:	30 e0       	ldi	r19, 0x00	; 0
    1cfc:	f9 01       	movw	r30, r18
    1cfe:	20 81       	ld	r18, Z
    1d00:	62 2f       	mov	r22, r18
    1d02:	2a 81       	ldd	r18, Y+2	; 0x02
    1d04:	42 2f       	mov	r20, r18
    1d06:	50 e0       	ldi	r21, 0x00	; 0
    1d08:	21 e0       	ldi	r18, 0x01	; 1
    1d0a:	30 e0       	ldi	r19, 0x00	; 0
    1d0c:	02 c0       	rjmp	.+4      	; 0x1d12 <DIO_InitPin+0x2fe>
    1d0e:	22 0f       	add	r18, r18
    1d10:	33 1f       	adc	r19, r19
    1d12:	4a 95       	dec	r20
    1d14:	e2 f7       	brpl	.-8      	; 0x1d0e <DIO_InitPin+0x2fa>
    1d16:	20 95       	com	r18
    1d18:	26 23       	and	r18, r22
    1d1a:	fc 01       	movw	r30, r24
    1d1c:	20 83       	st	Z, r18
    1d1e:	82 e3       	ldi	r24, 0x32	; 50
    1d20:	90 e0       	ldi	r25, 0x00	; 0
    1d22:	22 e3       	ldi	r18, 0x32	; 50
    1d24:	30 e0       	ldi	r19, 0x00	; 0
    1d26:	f9 01       	movw	r30, r18
    1d28:	20 81       	ld	r18, Z
    1d2a:	62 2f       	mov	r22, r18
    1d2c:	2a 81       	ldd	r18, Y+2	; 0x02
    1d2e:	42 2f       	mov	r20, r18
    1d30:	50 e0       	ldi	r21, 0x00	; 0
    1d32:	21 e0       	ldi	r18, 0x01	; 1
    1d34:	30 e0       	ldi	r19, 0x00	; 0
    1d36:	02 c0       	rjmp	.+4      	; 0x1d3c <DIO_InitPin+0x328>
    1d38:	22 0f       	add	r18, r18
    1d3a:	33 1f       	adc	r19, r19
    1d3c:	4a 95       	dec	r20
    1d3e:	e2 f7       	brpl	.-8      	; 0x1d38 <DIO_InitPin+0x324>
    1d40:	20 95       	com	r18
    1d42:	26 23       	and	r18, r22
    1d44:	fc 01       	movw	r30, r24
    1d46:	20 83       	st	Z, r18
    1d48:	00 00       	nop
    1d4a:	bd c0       	rjmp	.+378    	; 0x1ec6 <DIO_InitPin+0x4b2>
    1d4c:	89 81       	ldd	r24, Y+1	; 0x01
    1d4e:	88 2f       	mov	r24, r24
    1d50:	90 e0       	ldi	r25, 0x00	; 0
    1d52:	81 30       	cpi	r24, 0x01	; 1
    1d54:	91 05       	cpc	r25, r1
    1d56:	c1 f1       	breq	.+112    	; 0x1dc8 <DIO_InitPin+0x3b4>
    1d58:	82 30       	cpi	r24, 0x02	; 2
    1d5a:	91 05       	cpc	r25, r1
    1d5c:	1c f4       	brge	.+6      	; 0x1d64 <DIO_InitPin+0x350>
    1d5e:	89 2b       	or	r24, r25
    1d60:	49 f0       	breq	.+18     	; 0x1d74 <DIO_InitPin+0x360>
    1d62:	b0 c0       	rjmp	.+352    	; 0x1ec4 <DIO_InitPin+0x4b0>
    1d64:	82 30       	cpi	r24, 0x02	; 2
    1d66:	91 05       	cpc	r25, r1
    1d68:	09 f4       	brne	.+2      	; 0x1d6c <DIO_InitPin+0x358>
    1d6a:	58 c0       	rjmp	.+176    	; 0x1e1c <DIO_InitPin+0x408>
    1d6c:	03 97       	sbiw	r24, 0x03	; 3
    1d6e:	09 f4       	brne	.+2      	; 0x1d72 <DIO_InitPin+0x35e>
    1d70:	7f c0       	rjmp	.+254    	; 0x1e70 <DIO_InitPin+0x45c>
    1d72:	a8 c0       	rjmp	.+336    	; 0x1ec4 <DIO_InitPin+0x4b0>
    1d74:	8a e3       	ldi	r24, 0x3A	; 58
    1d76:	90 e0       	ldi	r25, 0x00	; 0
    1d78:	2a e3       	ldi	r18, 0x3A	; 58
    1d7a:	30 e0       	ldi	r19, 0x00	; 0
    1d7c:	f9 01       	movw	r30, r18
    1d7e:	20 81       	ld	r18, Z
    1d80:	62 2f       	mov	r22, r18
    1d82:	2a 81       	ldd	r18, Y+2	; 0x02
    1d84:	42 2f       	mov	r20, r18
    1d86:	50 e0       	ldi	r21, 0x00	; 0
    1d88:	21 e0       	ldi	r18, 0x01	; 1
    1d8a:	30 e0       	ldi	r19, 0x00	; 0
    1d8c:	02 c0       	rjmp	.+4      	; 0x1d92 <DIO_InitPin+0x37e>
    1d8e:	22 0f       	add	r18, r18
    1d90:	33 1f       	adc	r19, r19
    1d92:	4a 95       	dec	r20
    1d94:	e2 f7       	brpl	.-8      	; 0x1d8e <DIO_InitPin+0x37a>
    1d96:	20 95       	com	r18
    1d98:	26 23       	and	r18, r22
    1d9a:	fc 01       	movw	r30, r24
    1d9c:	20 83       	st	Z, r18
    1d9e:	8b e3       	ldi	r24, 0x3B	; 59
    1da0:	90 e0       	ldi	r25, 0x00	; 0
    1da2:	2b e3       	ldi	r18, 0x3B	; 59
    1da4:	30 e0       	ldi	r19, 0x00	; 0
    1da6:	f9 01       	movw	r30, r18
    1da8:	20 81       	ld	r18, Z
    1daa:	62 2f       	mov	r22, r18
    1dac:	2a 81       	ldd	r18, Y+2	; 0x02
    1dae:	42 2f       	mov	r20, r18
    1db0:	50 e0       	ldi	r21, 0x00	; 0
    1db2:	21 e0       	ldi	r18, 0x01	; 1
    1db4:	30 e0       	ldi	r19, 0x00	; 0
    1db6:	02 c0       	rjmp	.+4      	; 0x1dbc <DIO_InitPin+0x3a8>
    1db8:	22 0f       	add	r18, r18
    1dba:	33 1f       	adc	r19, r19
    1dbc:	4a 95       	dec	r20
    1dbe:	e2 f7       	brpl	.-8      	; 0x1db8 <DIO_InitPin+0x3a4>
    1dc0:	26 2b       	or	r18, r22
    1dc2:	fc 01       	movw	r30, r24
    1dc4:	20 83       	st	Z, r18
    1dc6:	7e c0       	rjmp	.+252    	; 0x1ec4 <DIO_InitPin+0x4b0>
    1dc8:	87 e3       	ldi	r24, 0x37	; 55
    1dca:	90 e0       	ldi	r25, 0x00	; 0
    1dcc:	27 e3       	ldi	r18, 0x37	; 55
    1dce:	30 e0       	ldi	r19, 0x00	; 0
    1dd0:	f9 01       	movw	r30, r18
    1dd2:	20 81       	ld	r18, Z
    1dd4:	62 2f       	mov	r22, r18
    1dd6:	2a 81       	ldd	r18, Y+2	; 0x02
    1dd8:	42 2f       	mov	r20, r18
    1dda:	50 e0       	ldi	r21, 0x00	; 0
    1ddc:	21 e0       	ldi	r18, 0x01	; 1
    1dde:	30 e0       	ldi	r19, 0x00	; 0
    1de0:	02 c0       	rjmp	.+4      	; 0x1de6 <DIO_InitPin+0x3d2>
    1de2:	22 0f       	add	r18, r18
    1de4:	33 1f       	adc	r19, r19
    1de6:	4a 95       	dec	r20
    1de8:	e2 f7       	brpl	.-8      	; 0x1de2 <DIO_InitPin+0x3ce>
    1dea:	20 95       	com	r18
    1dec:	26 23       	and	r18, r22
    1dee:	fc 01       	movw	r30, r24
    1df0:	20 83       	st	Z, r18
    1df2:	88 e3       	ldi	r24, 0x38	; 56
    1df4:	90 e0       	ldi	r25, 0x00	; 0
    1df6:	28 e3       	ldi	r18, 0x38	; 56
    1df8:	30 e0       	ldi	r19, 0x00	; 0
    1dfa:	f9 01       	movw	r30, r18
    1dfc:	20 81       	ld	r18, Z
    1dfe:	62 2f       	mov	r22, r18
    1e00:	2a 81       	ldd	r18, Y+2	; 0x02
    1e02:	42 2f       	mov	r20, r18
    1e04:	50 e0       	ldi	r21, 0x00	; 0
    1e06:	21 e0       	ldi	r18, 0x01	; 1
    1e08:	30 e0       	ldi	r19, 0x00	; 0
    1e0a:	02 c0       	rjmp	.+4      	; 0x1e10 <DIO_InitPin+0x3fc>
    1e0c:	22 0f       	add	r18, r18
    1e0e:	33 1f       	adc	r19, r19
    1e10:	4a 95       	dec	r20
    1e12:	e2 f7       	brpl	.-8      	; 0x1e0c <DIO_InitPin+0x3f8>
    1e14:	26 2b       	or	r18, r22
    1e16:	fc 01       	movw	r30, r24
    1e18:	20 83       	st	Z, r18
    1e1a:	54 c0       	rjmp	.+168    	; 0x1ec4 <DIO_InitPin+0x4b0>
    1e1c:	84 e3       	ldi	r24, 0x34	; 52
    1e1e:	90 e0       	ldi	r25, 0x00	; 0
    1e20:	24 e3       	ldi	r18, 0x34	; 52
    1e22:	30 e0       	ldi	r19, 0x00	; 0
    1e24:	f9 01       	movw	r30, r18
    1e26:	20 81       	ld	r18, Z
    1e28:	62 2f       	mov	r22, r18
    1e2a:	2a 81       	ldd	r18, Y+2	; 0x02
    1e2c:	42 2f       	mov	r20, r18
    1e2e:	50 e0       	ldi	r21, 0x00	; 0
    1e30:	21 e0       	ldi	r18, 0x01	; 1
    1e32:	30 e0       	ldi	r19, 0x00	; 0
    1e34:	02 c0       	rjmp	.+4      	; 0x1e3a <DIO_InitPin+0x426>
    1e36:	22 0f       	add	r18, r18
    1e38:	33 1f       	adc	r19, r19
    1e3a:	4a 95       	dec	r20
    1e3c:	e2 f7       	brpl	.-8      	; 0x1e36 <DIO_InitPin+0x422>
    1e3e:	20 95       	com	r18
    1e40:	26 23       	and	r18, r22
    1e42:	fc 01       	movw	r30, r24
    1e44:	20 83       	st	Z, r18
    1e46:	85 e3       	ldi	r24, 0x35	; 53
    1e48:	90 e0       	ldi	r25, 0x00	; 0
    1e4a:	25 e3       	ldi	r18, 0x35	; 53
    1e4c:	30 e0       	ldi	r19, 0x00	; 0
    1e4e:	f9 01       	movw	r30, r18
    1e50:	20 81       	ld	r18, Z
    1e52:	62 2f       	mov	r22, r18
    1e54:	2a 81       	ldd	r18, Y+2	; 0x02
    1e56:	42 2f       	mov	r20, r18
    1e58:	50 e0       	ldi	r21, 0x00	; 0
    1e5a:	21 e0       	ldi	r18, 0x01	; 1
    1e5c:	30 e0       	ldi	r19, 0x00	; 0
    1e5e:	02 c0       	rjmp	.+4      	; 0x1e64 <DIO_InitPin+0x450>
    1e60:	22 0f       	add	r18, r18
    1e62:	33 1f       	adc	r19, r19
    1e64:	4a 95       	dec	r20
    1e66:	e2 f7       	brpl	.-8      	; 0x1e60 <DIO_InitPin+0x44c>
    1e68:	26 2b       	or	r18, r22
    1e6a:	fc 01       	movw	r30, r24
    1e6c:	20 83       	st	Z, r18
    1e6e:	2a c0       	rjmp	.+84     	; 0x1ec4 <DIO_InitPin+0x4b0>
    1e70:	81 e3       	ldi	r24, 0x31	; 49
    1e72:	90 e0       	ldi	r25, 0x00	; 0
    1e74:	21 e3       	ldi	r18, 0x31	; 49
    1e76:	30 e0       	ldi	r19, 0x00	; 0
    1e78:	f9 01       	movw	r30, r18
    1e7a:	20 81       	ld	r18, Z
    1e7c:	62 2f       	mov	r22, r18
    1e7e:	2a 81       	ldd	r18, Y+2	; 0x02
    1e80:	42 2f       	mov	r20, r18
    1e82:	50 e0       	ldi	r21, 0x00	; 0
    1e84:	21 e0       	ldi	r18, 0x01	; 1
    1e86:	30 e0       	ldi	r19, 0x00	; 0
    1e88:	02 c0       	rjmp	.+4      	; 0x1e8e <DIO_InitPin+0x47a>
    1e8a:	22 0f       	add	r18, r18
    1e8c:	33 1f       	adc	r19, r19
    1e8e:	4a 95       	dec	r20
    1e90:	e2 f7       	brpl	.-8      	; 0x1e8a <DIO_InitPin+0x476>
    1e92:	20 95       	com	r18
    1e94:	26 23       	and	r18, r22
    1e96:	fc 01       	movw	r30, r24
    1e98:	20 83       	st	Z, r18
    1e9a:	82 e3       	ldi	r24, 0x32	; 50
    1e9c:	90 e0       	ldi	r25, 0x00	; 0
    1e9e:	22 e3       	ldi	r18, 0x32	; 50
    1ea0:	30 e0       	ldi	r19, 0x00	; 0
    1ea2:	f9 01       	movw	r30, r18
    1ea4:	20 81       	ld	r18, Z
    1ea6:	62 2f       	mov	r22, r18
    1ea8:	2a 81       	ldd	r18, Y+2	; 0x02
    1eaa:	42 2f       	mov	r20, r18
    1eac:	50 e0       	ldi	r21, 0x00	; 0
    1eae:	21 e0       	ldi	r18, 0x01	; 1
    1eb0:	30 e0       	ldi	r19, 0x00	; 0
    1eb2:	02 c0       	rjmp	.+4      	; 0x1eb8 <DIO_InitPin+0x4a4>
    1eb4:	22 0f       	add	r18, r18
    1eb6:	33 1f       	adc	r19, r19
    1eb8:	4a 95       	dec	r20
    1eba:	e2 f7       	brpl	.-8      	; 0x1eb4 <DIO_InitPin+0x4a0>
    1ebc:	26 2b       	or	r18, r22
    1ebe:	fc 01       	movw	r30, r24
    1ec0:	20 83       	st	Z, r18
    1ec2:	00 00       	nop
    1ec4:	00 00       	nop
    1ec6:	00 00       	nop
    1ec8:	0f 90       	pop	r0
    1eca:	0f 90       	pop	r0
    1ecc:	0f 90       	pop	r0
    1ece:	0f 90       	pop	r0
    1ed0:	df 91       	pop	r29
    1ed2:	cf 91       	pop	r28
    1ed4:	08 95       	ret

00001ed6 <DIO_WritePin>:
    1ed6:	cf 93       	push	r28
    1ed8:	df 93       	push	r29
    1eda:	00 d0       	rcall	.+0      	; 0x1edc <DIO_WritePin+0x6>
    1edc:	00 d0       	rcall	.+0      	; 0x1ede <DIO_WritePin+0x8>
    1ede:	cd b7       	in	r28, 0x3d	; 61
    1ee0:	de b7       	in	r29, 0x3e	; 62
    1ee2:	8b 83       	std	Y+3, r24	; 0x03
    1ee4:	6c 83       	std	Y+4, r22	; 0x04
    1ee6:	8b 81       	ldd	r24, Y+3	; 0x03
    1ee8:	86 95       	lsr	r24
    1eea:	86 95       	lsr	r24
    1eec:	86 95       	lsr	r24
    1eee:	89 83       	std	Y+1, r24	; 0x01
    1ef0:	8b 81       	ldd	r24, Y+3	; 0x03
    1ef2:	87 70       	andi	r24, 0x07	; 7
    1ef4:	8a 83       	std	Y+2, r24	; 0x02
    1ef6:	8c 81       	ldd	r24, Y+4	; 0x04
    1ef8:	81 30       	cpi	r24, 0x01	; 1
    1efa:	09 f0       	breq	.+2      	; 0x1efe <DIO_WritePin+0x28>
    1efc:	68 c0       	rjmp	.+208    	; 0x1fce <DIO_WritePin+0xf8>
    1efe:	89 81       	ldd	r24, Y+1	; 0x01
    1f00:	88 2f       	mov	r24, r24
    1f02:	90 e0       	ldi	r25, 0x00	; 0
    1f04:	81 30       	cpi	r24, 0x01	; 1
    1f06:	91 05       	cpc	r25, r1
    1f08:	11 f1       	breq	.+68     	; 0x1f4e <DIO_WritePin+0x78>
    1f0a:	82 30       	cpi	r24, 0x02	; 2
    1f0c:	91 05       	cpc	r25, r1
    1f0e:	1c f4       	brge	.+6      	; 0x1f16 <DIO_WritePin+0x40>
    1f10:	89 2b       	or	r24, r25
    1f12:	41 f0       	breq	.+16     	; 0x1f24 <DIO_WritePin+0x4e>
    1f14:	c7 c0       	rjmp	.+398    	; 0x20a4 <DIO_WritePin+0x1ce>
    1f16:	82 30       	cpi	r24, 0x02	; 2
    1f18:	91 05       	cpc	r25, r1
    1f1a:	71 f1       	breq	.+92     	; 0x1f78 <DIO_WritePin+0xa2>
    1f1c:	03 97       	sbiw	r24, 0x03	; 3
    1f1e:	09 f4       	brne	.+2      	; 0x1f22 <DIO_WritePin+0x4c>
    1f20:	40 c0       	rjmp	.+128    	; 0x1fa2 <DIO_WritePin+0xcc>
    1f22:	c0 c0       	rjmp	.+384    	; 0x20a4 <DIO_WritePin+0x1ce>
    1f24:	8b e3       	ldi	r24, 0x3B	; 59
    1f26:	90 e0       	ldi	r25, 0x00	; 0
    1f28:	2b e3       	ldi	r18, 0x3B	; 59
    1f2a:	30 e0       	ldi	r19, 0x00	; 0
    1f2c:	f9 01       	movw	r30, r18
    1f2e:	20 81       	ld	r18, Z
    1f30:	62 2f       	mov	r22, r18
    1f32:	2a 81       	ldd	r18, Y+2	; 0x02
    1f34:	42 2f       	mov	r20, r18
    1f36:	50 e0       	ldi	r21, 0x00	; 0
    1f38:	21 e0       	ldi	r18, 0x01	; 1
    1f3a:	30 e0       	ldi	r19, 0x00	; 0
    1f3c:	02 c0       	rjmp	.+4      	; 0x1f42 <DIO_WritePin+0x6c>
    1f3e:	22 0f       	add	r18, r18
    1f40:	33 1f       	adc	r19, r19
    1f42:	4a 95       	dec	r20
    1f44:	e2 f7       	brpl	.-8      	; 0x1f3e <DIO_WritePin+0x68>
    1f46:	26 2b       	or	r18, r22
    1f48:	fc 01       	movw	r30, r24
    1f4a:	20 83       	st	Z, r18
    1f4c:	ab c0       	rjmp	.+342    	; 0x20a4 <DIO_WritePin+0x1ce>
    1f4e:	88 e3       	ldi	r24, 0x38	; 56
    1f50:	90 e0       	ldi	r25, 0x00	; 0
    1f52:	28 e3       	ldi	r18, 0x38	; 56
    1f54:	30 e0       	ldi	r19, 0x00	; 0
    1f56:	f9 01       	movw	r30, r18
    1f58:	20 81       	ld	r18, Z
    1f5a:	62 2f       	mov	r22, r18
    1f5c:	2a 81       	ldd	r18, Y+2	; 0x02
    1f5e:	42 2f       	mov	r20, r18
    1f60:	50 e0       	ldi	r21, 0x00	; 0
    1f62:	21 e0       	ldi	r18, 0x01	; 1
    1f64:	30 e0       	ldi	r19, 0x00	; 0
    1f66:	02 c0       	rjmp	.+4      	; 0x1f6c <DIO_WritePin+0x96>
    1f68:	22 0f       	add	r18, r18
    1f6a:	33 1f       	adc	r19, r19
    1f6c:	4a 95       	dec	r20
    1f6e:	e2 f7       	brpl	.-8      	; 0x1f68 <DIO_WritePin+0x92>
    1f70:	26 2b       	or	r18, r22
    1f72:	fc 01       	movw	r30, r24
    1f74:	20 83       	st	Z, r18
    1f76:	96 c0       	rjmp	.+300    	; 0x20a4 <DIO_WritePin+0x1ce>
    1f78:	85 e3       	ldi	r24, 0x35	; 53
    1f7a:	90 e0       	ldi	r25, 0x00	; 0
    1f7c:	25 e3       	ldi	r18, 0x35	; 53
    1f7e:	30 e0       	ldi	r19, 0x00	; 0
    1f80:	f9 01       	movw	r30, r18
    1f82:	20 81       	ld	r18, Z
    1f84:	62 2f       	mov	r22, r18
    1f86:	2a 81       	ldd	r18, Y+2	; 0x02
    1f88:	42 2f       	mov	r20, r18
    1f8a:	50 e0       	ldi	r21, 0x00	; 0
    1f8c:	21 e0       	ldi	r18, 0x01	; 1
    1f8e:	30 e0       	ldi	r19, 0x00	; 0
    1f90:	02 c0       	rjmp	.+4      	; 0x1f96 <DIO_WritePin+0xc0>
    1f92:	22 0f       	add	r18, r18
    1f94:	33 1f       	adc	r19, r19
    1f96:	4a 95       	dec	r20
    1f98:	e2 f7       	brpl	.-8      	; 0x1f92 <DIO_WritePin+0xbc>
    1f9a:	26 2b       	or	r18, r22
    1f9c:	fc 01       	movw	r30, r24
    1f9e:	20 83       	st	Z, r18
    1fa0:	81 c0       	rjmp	.+258    	; 0x20a4 <DIO_WritePin+0x1ce>
    1fa2:	82 e3       	ldi	r24, 0x32	; 50
    1fa4:	90 e0       	ldi	r25, 0x00	; 0
    1fa6:	22 e3       	ldi	r18, 0x32	; 50
    1fa8:	30 e0       	ldi	r19, 0x00	; 0
    1faa:	f9 01       	movw	r30, r18
    1fac:	20 81       	ld	r18, Z
    1fae:	62 2f       	mov	r22, r18
    1fb0:	2a 81       	ldd	r18, Y+2	; 0x02
    1fb2:	42 2f       	mov	r20, r18
    1fb4:	50 e0       	ldi	r21, 0x00	; 0
    1fb6:	21 e0       	ldi	r18, 0x01	; 1
    1fb8:	30 e0       	ldi	r19, 0x00	; 0
    1fba:	02 c0       	rjmp	.+4      	; 0x1fc0 <DIO_WritePin+0xea>
    1fbc:	22 0f       	add	r18, r18
    1fbe:	33 1f       	adc	r19, r19
    1fc0:	4a 95       	dec	r20
    1fc2:	e2 f7       	brpl	.-8      	; 0x1fbc <DIO_WritePin+0xe6>
    1fc4:	26 2b       	or	r18, r22
    1fc6:	fc 01       	movw	r30, r24
    1fc8:	20 83       	st	Z, r18
    1fca:	00 00       	nop
    1fcc:	6b c0       	rjmp	.+214    	; 0x20a4 <DIO_WritePin+0x1ce>
    1fce:	89 81       	ldd	r24, Y+1	; 0x01
    1fd0:	88 2f       	mov	r24, r24
    1fd2:	90 e0       	ldi	r25, 0x00	; 0
    1fd4:	81 30       	cpi	r24, 0x01	; 1
    1fd6:	91 05       	cpc	r25, r1
    1fd8:	19 f1       	breq	.+70     	; 0x2020 <DIO_WritePin+0x14a>
    1fda:	82 30       	cpi	r24, 0x02	; 2
    1fdc:	91 05       	cpc	r25, r1
    1fde:	1c f4       	brge	.+6      	; 0x1fe6 <DIO_WritePin+0x110>
    1fe0:	89 2b       	or	r24, r25
    1fe2:	41 f0       	breq	.+16     	; 0x1ff4 <DIO_WritePin+0x11e>
    1fe4:	5f c0       	rjmp	.+190    	; 0x20a4 <DIO_WritePin+0x1ce>
    1fe6:	82 30       	cpi	r24, 0x02	; 2
    1fe8:	91 05       	cpc	r25, r1
    1fea:	81 f1       	breq	.+96     	; 0x204c <DIO_WritePin+0x176>
    1fec:	03 97       	sbiw	r24, 0x03	; 3
    1fee:	09 f4       	brne	.+2      	; 0x1ff2 <DIO_WritePin+0x11c>
    1ff0:	43 c0       	rjmp	.+134    	; 0x2078 <DIO_WritePin+0x1a2>
    1ff2:	58 c0       	rjmp	.+176    	; 0x20a4 <DIO_WritePin+0x1ce>
    1ff4:	8b e3       	ldi	r24, 0x3B	; 59
    1ff6:	90 e0       	ldi	r25, 0x00	; 0
    1ff8:	2b e3       	ldi	r18, 0x3B	; 59
    1ffa:	30 e0       	ldi	r19, 0x00	; 0
    1ffc:	f9 01       	movw	r30, r18
    1ffe:	20 81       	ld	r18, Z
    2000:	62 2f       	mov	r22, r18
    2002:	2a 81       	ldd	r18, Y+2	; 0x02
    2004:	42 2f       	mov	r20, r18
    2006:	50 e0       	ldi	r21, 0x00	; 0
    2008:	21 e0       	ldi	r18, 0x01	; 1
    200a:	30 e0       	ldi	r19, 0x00	; 0
    200c:	02 c0       	rjmp	.+4      	; 0x2012 <DIO_WritePin+0x13c>
    200e:	22 0f       	add	r18, r18
    2010:	33 1f       	adc	r19, r19
    2012:	4a 95       	dec	r20
    2014:	e2 f7       	brpl	.-8      	; 0x200e <DIO_WritePin+0x138>
    2016:	20 95       	com	r18
    2018:	26 23       	and	r18, r22
    201a:	fc 01       	movw	r30, r24
    201c:	20 83       	st	Z, r18
    201e:	42 c0       	rjmp	.+132    	; 0x20a4 <DIO_WritePin+0x1ce>
    2020:	88 e3       	ldi	r24, 0x38	; 56
    2022:	90 e0       	ldi	r25, 0x00	; 0
    2024:	28 e3       	ldi	r18, 0x38	; 56
    2026:	30 e0       	ldi	r19, 0x00	; 0
    2028:	f9 01       	movw	r30, r18
    202a:	20 81       	ld	r18, Z
    202c:	62 2f       	mov	r22, r18
    202e:	2a 81       	ldd	r18, Y+2	; 0x02
    2030:	42 2f       	mov	r20, r18
    2032:	50 e0       	ldi	r21, 0x00	; 0
    2034:	21 e0       	ldi	r18, 0x01	; 1
    2036:	30 e0       	ldi	r19, 0x00	; 0
    2038:	02 c0       	rjmp	.+4      	; 0x203e <DIO_WritePin+0x168>
    203a:	22 0f       	add	r18, r18
    203c:	33 1f       	adc	r19, r19
    203e:	4a 95       	dec	r20
    2040:	e2 f7       	brpl	.-8      	; 0x203a <DIO_WritePin+0x164>
    2042:	20 95       	com	r18
    2044:	26 23       	and	r18, r22
    2046:	fc 01       	movw	r30, r24
    2048:	20 83       	st	Z, r18
    204a:	2c c0       	rjmp	.+88     	; 0x20a4 <DIO_WritePin+0x1ce>
    204c:	85 e3       	ldi	r24, 0x35	; 53
    204e:	90 e0       	ldi	r25, 0x00	; 0
    2050:	25 e3       	ldi	r18, 0x35	; 53
    2052:	30 e0       	ldi	r19, 0x00	; 0
    2054:	f9 01       	movw	r30, r18
    2056:	20 81       	ld	r18, Z
    2058:	62 2f       	mov	r22, r18
    205a:	2a 81       	ldd	r18, Y+2	; 0x02
    205c:	42 2f       	mov	r20, r18
    205e:	50 e0       	ldi	r21, 0x00	; 0
    2060:	21 e0       	ldi	r18, 0x01	; 1
    2062:	30 e0       	ldi	r19, 0x00	; 0
    2064:	02 c0       	rjmp	.+4      	; 0x206a <DIO_WritePin+0x194>
    2066:	22 0f       	add	r18, r18
    2068:	33 1f       	adc	r19, r19
    206a:	4a 95       	dec	r20
    206c:	e2 f7       	brpl	.-8      	; 0x2066 <DIO_WritePin+0x190>
    206e:	20 95       	com	r18
    2070:	26 23       	and	r18, r22
    2072:	fc 01       	movw	r30, r24
    2074:	20 83       	st	Z, r18
    2076:	16 c0       	rjmp	.+44     	; 0x20a4 <DIO_WritePin+0x1ce>
    2078:	82 e3       	ldi	r24, 0x32	; 50
    207a:	90 e0       	ldi	r25, 0x00	; 0
    207c:	22 e3       	ldi	r18, 0x32	; 50
    207e:	30 e0       	ldi	r19, 0x00	; 0
    2080:	f9 01       	movw	r30, r18
    2082:	20 81       	ld	r18, Z
    2084:	62 2f       	mov	r22, r18
    2086:	2a 81       	ldd	r18, Y+2	; 0x02
    2088:	42 2f       	mov	r20, r18
    208a:	50 e0       	ldi	r21, 0x00	; 0
    208c:	21 e0       	ldi	r18, 0x01	; 1
    208e:	30 e0       	ldi	r19, 0x00	; 0
    2090:	02 c0       	rjmp	.+4      	; 0x2096 <DIO_WritePin+0x1c0>
    2092:	22 0f       	add	r18, r18
    2094:	33 1f       	adc	r19, r19
    2096:	4a 95       	dec	r20
    2098:	e2 f7       	brpl	.-8      	; 0x2092 <DIO_WritePin+0x1bc>
    209a:	20 95       	com	r18
    209c:	26 23       	and	r18, r22
    209e:	fc 01       	movw	r30, r24
    20a0:	20 83       	st	Z, r18
    20a2:	00 00       	nop
    20a4:	00 00       	nop
    20a6:	0f 90       	pop	r0
    20a8:	0f 90       	pop	r0
    20aa:	0f 90       	pop	r0
    20ac:	0f 90       	pop	r0
    20ae:	df 91       	pop	r29
    20b0:	cf 91       	pop	r28
    20b2:	08 95       	ret

000020b4 <DIO_ReadPin>:
    20b4:	cf 93       	push	r28
    20b6:	df 93       	push	r29
    20b8:	00 d0       	rcall	.+0      	; 0x20ba <DIO_ReadPin+0x6>
    20ba:	00 d0       	rcall	.+0      	; 0x20bc <DIO_ReadPin+0x8>
    20bc:	cd b7       	in	r28, 0x3d	; 61
    20be:	de b7       	in	r29, 0x3e	; 62
    20c0:	8c 83       	std	Y+4, r24	; 0x04
    20c2:	8c 81       	ldd	r24, Y+4	; 0x04
    20c4:	86 95       	lsr	r24
    20c6:	86 95       	lsr	r24
    20c8:	86 95       	lsr	r24
    20ca:	8a 83       	std	Y+2, r24	; 0x02
    20cc:	8c 81       	ldd	r24, Y+4	; 0x04
    20ce:	87 70       	andi	r24, 0x07	; 7
    20d0:	8b 83       	std	Y+3, r24	; 0x03
    20d2:	19 82       	std	Y+1, r1	; 0x01
    20d4:	8a 81       	ldd	r24, Y+2	; 0x02
    20d6:	88 2f       	mov	r24, r24
    20d8:	90 e0       	ldi	r25, 0x00	; 0
    20da:	81 30       	cpi	r24, 0x01	; 1
    20dc:	91 05       	cpc	r25, r1
    20de:	e9 f0       	breq	.+58     	; 0x211a <DIO_ReadPin+0x66>
    20e0:	82 30       	cpi	r24, 0x02	; 2
    20e2:	91 05       	cpc	r25, r1
    20e4:	1c f4       	brge	.+6      	; 0x20ec <DIO_ReadPin+0x38>
    20e6:	89 2b       	or	r24, r25
    20e8:	39 f0       	breq	.+14     	; 0x20f8 <DIO_ReadPin+0x44>
    20ea:	4a c0       	rjmp	.+148    	; 0x2180 <DIO_ReadPin+0xcc>
    20ec:	82 30       	cpi	r24, 0x02	; 2
    20ee:	91 05       	cpc	r25, r1
    20f0:	29 f1       	breq	.+74     	; 0x213c <DIO_ReadPin+0x88>
    20f2:	03 97       	sbiw	r24, 0x03	; 3
    20f4:	a1 f1       	breq	.+104    	; 0x215e <DIO_ReadPin+0xaa>
    20f6:	44 c0       	rjmp	.+136    	; 0x2180 <DIO_ReadPin+0xcc>
    20f8:	89 e3       	ldi	r24, 0x39	; 57
    20fa:	90 e0       	ldi	r25, 0x00	; 0
    20fc:	fc 01       	movw	r30, r24
    20fe:	80 81       	ld	r24, Z
    2100:	88 2f       	mov	r24, r24
    2102:	90 e0       	ldi	r25, 0x00	; 0
    2104:	2b 81       	ldd	r18, Y+3	; 0x03
    2106:	22 2f       	mov	r18, r18
    2108:	30 e0       	ldi	r19, 0x00	; 0
    210a:	02 c0       	rjmp	.+4      	; 0x2110 <DIO_ReadPin+0x5c>
    210c:	95 95       	asr	r25
    210e:	87 95       	ror	r24
    2110:	2a 95       	dec	r18
    2112:	e2 f7       	brpl	.-8      	; 0x210c <DIO_ReadPin+0x58>
    2114:	81 70       	andi	r24, 0x01	; 1
    2116:	89 83       	std	Y+1, r24	; 0x01
    2118:	33 c0       	rjmp	.+102    	; 0x2180 <DIO_ReadPin+0xcc>
    211a:	86 e3       	ldi	r24, 0x36	; 54
    211c:	90 e0       	ldi	r25, 0x00	; 0
    211e:	fc 01       	movw	r30, r24
    2120:	80 81       	ld	r24, Z
    2122:	88 2f       	mov	r24, r24
    2124:	90 e0       	ldi	r25, 0x00	; 0
    2126:	2b 81       	ldd	r18, Y+3	; 0x03
    2128:	22 2f       	mov	r18, r18
    212a:	30 e0       	ldi	r19, 0x00	; 0
    212c:	02 c0       	rjmp	.+4      	; 0x2132 <DIO_ReadPin+0x7e>
    212e:	95 95       	asr	r25
    2130:	87 95       	ror	r24
    2132:	2a 95       	dec	r18
    2134:	e2 f7       	brpl	.-8      	; 0x212e <DIO_ReadPin+0x7a>
    2136:	81 70       	andi	r24, 0x01	; 1
    2138:	89 83       	std	Y+1, r24	; 0x01
    213a:	22 c0       	rjmp	.+68     	; 0x2180 <DIO_ReadPin+0xcc>
    213c:	83 e3       	ldi	r24, 0x33	; 51
    213e:	90 e0       	ldi	r25, 0x00	; 0
    2140:	fc 01       	movw	r30, r24
    2142:	80 81       	ld	r24, Z
    2144:	88 2f       	mov	r24, r24
    2146:	90 e0       	ldi	r25, 0x00	; 0
    2148:	2b 81       	ldd	r18, Y+3	; 0x03
    214a:	22 2f       	mov	r18, r18
    214c:	30 e0       	ldi	r19, 0x00	; 0
    214e:	02 c0       	rjmp	.+4      	; 0x2154 <DIO_ReadPin+0xa0>
    2150:	95 95       	asr	r25
    2152:	87 95       	ror	r24
    2154:	2a 95       	dec	r18
    2156:	e2 f7       	brpl	.-8      	; 0x2150 <DIO_ReadPin+0x9c>
    2158:	81 70       	andi	r24, 0x01	; 1
    215a:	89 83       	std	Y+1, r24	; 0x01
    215c:	11 c0       	rjmp	.+34     	; 0x2180 <DIO_ReadPin+0xcc>
    215e:	80 e3       	ldi	r24, 0x30	; 48
    2160:	90 e0       	ldi	r25, 0x00	; 0
    2162:	fc 01       	movw	r30, r24
    2164:	80 81       	ld	r24, Z
    2166:	88 2f       	mov	r24, r24
    2168:	90 e0       	ldi	r25, 0x00	; 0
    216a:	2b 81       	ldd	r18, Y+3	; 0x03
    216c:	22 2f       	mov	r18, r18
    216e:	30 e0       	ldi	r19, 0x00	; 0
    2170:	02 c0       	rjmp	.+4      	; 0x2176 <DIO_ReadPin+0xc2>
    2172:	95 95       	asr	r25
    2174:	87 95       	ror	r24
    2176:	2a 95       	dec	r18
    2178:	e2 f7       	brpl	.-8      	; 0x2172 <DIO_ReadPin+0xbe>
    217a:	81 70       	andi	r24, 0x01	; 1
    217c:	89 83       	std	Y+1, r24	; 0x01
    217e:	00 00       	nop
    2180:	89 81       	ldd	r24, Y+1	; 0x01
    2182:	0f 90       	pop	r0
    2184:	0f 90       	pop	r0
    2186:	0f 90       	pop	r0
    2188:	0f 90       	pop	r0
    218a:	df 91       	pop	r29
    218c:	cf 91       	pop	r28
    218e:	08 95       	ret

00002190 <EXI_Init>:
    2190:	cf 93       	push	r28
    2192:	df 93       	push	r29
    2194:	cd b7       	in	r28, 0x3d	; 61
    2196:	de b7       	in	r29, 0x3e	; 62
    2198:	62 e0       	ldi	r22, 0x02	; 2
    219a:	80 e0       	ldi	r24, 0x00	; 0
    219c:	0e 94 11 11 	call	0x2222	; 0x2222 <EXI_TriggerEdge>
    21a0:	62 e0       	ldi	r22, 0x02	; 2
    21a2:	81 e0       	ldi	r24, 0x01	; 1
    21a4:	0e 94 11 11 	call	0x2222	; 0x2222 <EXI_TriggerEdge>
    21a8:	62 e0       	ldi	r22, 0x02	; 2
    21aa:	82 e0       	ldi	r24, 0x02	; 2
    21ac:	0e 94 11 11 	call	0x2222	; 0x2222 <EXI_TriggerEdge>
    21b0:	00 00       	nop
    21b2:	df 91       	pop	r29
    21b4:	cf 91       	pop	r28
    21b6:	08 95       	ret

000021b8 <EXI_Enable>:
    21b8:	cf 93       	push	r28
    21ba:	df 93       	push	r29
    21bc:	1f 92       	push	r1
    21be:	cd b7       	in	r28, 0x3d	; 61
    21c0:	de b7       	in	r29, 0x3e	; 62
    21c2:	89 83       	std	Y+1, r24	; 0x01
    21c4:	89 81       	ldd	r24, Y+1	; 0x01
    21c6:	88 2f       	mov	r24, r24
    21c8:	90 e0       	ldi	r25, 0x00	; 0
    21ca:	81 30       	cpi	r24, 0x01	; 1
    21cc:	91 05       	cpc	r25, r1
    21ce:	81 f0       	breq	.+32     	; 0x21f0 <EXI_Enable+0x38>
    21d0:	82 30       	cpi	r24, 0x02	; 2
    21d2:	91 05       	cpc	r25, r1
    21d4:	b9 f0       	breq	.+46     	; 0x2204 <EXI_Enable+0x4c>
    21d6:	89 2b       	or	r24, r25
    21d8:	09 f0       	breq	.+2      	; 0x21dc <EXI_Enable+0x24>
    21da:	1e c0       	rjmp	.+60     	; 0x2218 <EXI_Enable+0x60>
    21dc:	8b e5       	ldi	r24, 0x5B	; 91
    21de:	90 e0       	ldi	r25, 0x00	; 0
    21e0:	2b e5       	ldi	r18, 0x5B	; 91
    21e2:	30 e0       	ldi	r19, 0x00	; 0
    21e4:	f9 01       	movw	r30, r18
    21e6:	20 81       	ld	r18, Z
    21e8:	20 64       	ori	r18, 0x40	; 64
    21ea:	fc 01       	movw	r30, r24
    21ec:	20 83       	st	Z, r18
    21ee:	14 c0       	rjmp	.+40     	; 0x2218 <EXI_Enable+0x60>
    21f0:	8b e5       	ldi	r24, 0x5B	; 91
    21f2:	90 e0       	ldi	r25, 0x00	; 0
    21f4:	2b e5       	ldi	r18, 0x5B	; 91
    21f6:	30 e0       	ldi	r19, 0x00	; 0
    21f8:	f9 01       	movw	r30, r18
    21fa:	20 81       	ld	r18, Z
    21fc:	20 68       	ori	r18, 0x80	; 128
    21fe:	fc 01       	movw	r30, r24
    2200:	20 83       	st	Z, r18
    2202:	0a c0       	rjmp	.+20     	; 0x2218 <EXI_Enable+0x60>
    2204:	8b e5       	ldi	r24, 0x5B	; 91
    2206:	90 e0       	ldi	r25, 0x00	; 0
    2208:	2b e5       	ldi	r18, 0x5B	; 91
    220a:	30 e0       	ldi	r19, 0x00	; 0
    220c:	f9 01       	movw	r30, r18
    220e:	20 81       	ld	r18, Z
    2210:	20 62       	ori	r18, 0x20	; 32
    2212:	fc 01       	movw	r30, r24
    2214:	20 83       	st	Z, r18
    2216:	00 00       	nop
    2218:	00 00       	nop
    221a:	0f 90       	pop	r0
    221c:	df 91       	pop	r29
    221e:	cf 91       	pop	r28
    2220:	08 95       	ret

00002222 <EXI_TriggerEdge>:
    2222:	cf 93       	push	r28
    2224:	df 93       	push	r29
    2226:	00 d0       	rcall	.+0      	; 0x2228 <EXI_TriggerEdge+0x6>
    2228:	cd b7       	in	r28, 0x3d	; 61
    222a:	de b7       	in	r29, 0x3e	; 62
    222c:	89 83       	std	Y+1, r24	; 0x01
    222e:	6a 83       	std	Y+2, r22	; 0x02
    2230:	89 81       	ldd	r24, Y+1	; 0x01
    2232:	88 2f       	mov	r24, r24
    2234:	90 e0       	ldi	r25, 0x00	; 0
    2236:	81 30       	cpi	r24, 0x01	; 1
    2238:	91 05       	cpc	r25, r1
    223a:	09 f4       	brne	.+2      	; 0x223e <EXI_TriggerEdge+0x1c>
    223c:	66 c0       	rjmp	.+204    	; 0x230a <EXI_TriggerEdge+0xe8>
    223e:	82 30       	cpi	r24, 0x02	; 2
    2240:	91 05       	cpc	r25, r1
    2242:	09 f4       	brne	.+2      	; 0x2246 <EXI_TriggerEdge+0x24>
    2244:	c1 c0       	rjmp	.+386    	; 0x23c8 <EXI_TriggerEdge+0x1a6>
    2246:	89 2b       	or	r24, r25
    2248:	09 f0       	breq	.+2      	; 0x224c <EXI_TriggerEdge+0x2a>
    224a:	e6 c0       	rjmp	.+460    	; 0x2418 <EXI_TriggerEdge+0x1f6>
    224c:	8a 81       	ldd	r24, Y+2	; 0x02
    224e:	88 2f       	mov	r24, r24
    2250:	90 e0       	ldi	r25, 0x00	; 0
    2252:	81 30       	cpi	r24, 0x01	; 1
    2254:	91 05       	cpc	r25, r1
    2256:	f9 f0       	breq	.+62     	; 0x2296 <EXI_TriggerEdge+0x74>
    2258:	82 30       	cpi	r24, 0x02	; 2
    225a:	91 05       	cpc	r25, r1
    225c:	1c f4       	brge	.+6      	; 0x2264 <EXI_TriggerEdge+0x42>
    225e:	89 2b       	or	r24, r25
    2260:	39 f0       	breq	.+14     	; 0x2270 <EXI_TriggerEdge+0x4e>
    2262:	da c0       	rjmp	.+436    	; 0x2418 <EXI_TriggerEdge+0x1f6>
    2264:	82 30       	cpi	r24, 0x02	; 2
    2266:	91 05       	cpc	r25, r1
    2268:	49 f1       	breq	.+82     	; 0x22bc <EXI_TriggerEdge+0x9a>
    226a:	03 97       	sbiw	r24, 0x03	; 3
    226c:	d1 f1       	breq	.+116    	; 0x22e2 <EXI_TriggerEdge+0xc0>
    226e:	d4 c0       	rjmp	.+424    	; 0x2418 <EXI_TriggerEdge+0x1f6>
    2270:	85 e5       	ldi	r24, 0x55	; 85
    2272:	90 e0       	ldi	r25, 0x00	; 0
    2274:	25 e5       	ldi	r18, 0x55	; 85
    2276:	30 e0       	ldi	r19, 0x00	; 0
    2278:	f9 01       	movw	r30, r18
    227a:	20 81       	ld	r18, Z
    227c:	2e 7f       	andi	r18, 0xFE	; 254
    227e:	fc 01       	movw	r30, r24
    2280:	20 83       	st	Z, r18
    2282:	85 e5       	ldi	r24, 0x55	; 85
    2284:	90 e0       	ldi	r25, 0x00	; 0
    2286:	25 e5       	ldi	r18, 0x55	; 85
    2288:	30 e0       	ldi	r19, 0x00	; 0
    228a:	f9 01       	movw	r30, r18
    228c:	20 81       	ld	r18, Z
    228e:	2d 7f       	andi	r18, 0xFD	; 253
    2290:	fc 01       	movw	r30, r24
    2292:	20 83       	st	Z, r18
    2294:	39 c0       	rjmp	.+114    	; 0x2308 <EXI_TriggerEdge+0xe6>
    2296:	85 e5       	ldi	r24, 0x55	; 85
    2298:	90 e0       	ldi	r25, 0x00	; 0
    229a:	25 e5       	ldi	r18, 0x55	; 85
    229c:	30 e0       	ldi	r19, 0x00	; 0
    229e:	f9 01       	movw	r30, r18
    22a0:	20 81       	ld	r18, Z
    22a2:	21 60       	ori	r18, 0x01	; 1
    22a4:	fc 01       	movw	r30, r24
    22a6:	20 83       	st	Z, r18
    22a8:	85 e5       	ldi	r24, 0x55	; 85
    22aa:	90 e0       	ldi	r25, 0x00	; 0
    22ac:	25 e5       	ldi	r18, 0x55	; 85
    22ae:	30 e0       	ldi	r19, 0x00	; 0
    22b0:	f9 01       	movw	r30, r18
    22b2:	20 81       	ld	r18, Z
    22b4:	2d 7f       	andi	r18, 0xFD	; 253
    22b6:	fc 01       	movw	r30, r24
    22b8:	20 83       	st	Z, r18
    22ba:	26 c0       	rjmp	.+76     	; 0x2308 <EXI_TriggerEdge+0xe6>
    22bc:	85 e5       	ldi	r24, 0x55	; 85
    22be:	90 e0       	ldi	r25, 0x00	; 0
    22c0:	25 e5       	ldi	r18, 0x55	; 85
    22c2:	30 e0       	ldi	r19, 0x00	; 0
    22c4:	f9 01       	movw	r30, r18
    22c6:	20 81       	ld	r18, Z
    22c8:	2e 7f       	andi	r18, 0xFE	; 254
    22ca:	fc 01       	movw	r30, r24
    22cc:	20 83       	st	Z, r18
    22ce:	85 e5       	ldi	r24, 0x55	; 85
    22d0:	90 e0       	ldi	r25, 0x00	; 0
    22d2:	25 e5       	ldi	r18, 0x55	; 85
    22d4:	30 e0       	ldi	r19, 0x00	; 0
    22d6:	f9 01       	movw	r30, r18
    22d8:	20 81       	ld	r18, Z
    22da:	22 60       	ori	r18, 0x02	; 2
    22dc:	fc 01       	movw	r30, r24
    22de:	20 83       	st	Z, r18
    22e0:	13 c0       	rjmp	.+38     	; 0x2308 <EXI_TriggerEdge+0xe6>
    22e2:	85 e5       	ldi	r24, 0x55	; 85
    22e4:	90 e0       	ldi	r25, 0x00	; 0
    22e6:	25 e5       	ldi	r18, 0x55	; 85
    22e8:	30 e0       	ldi	r19, 0x00	; 0
    22ea:	f9 01       	movw	r30, r18
    22ec:	20 81       	ld	r18, Z
    22ee:	21 60       	ori	r18, 0x01	; 1
    22f0:	fc 01       	movw	r30, r24
    22f2:	20 83       	st	Z, r18
    22f4:	85 e5       	ldi	r24, 0x55	; 85
    22f6:	90 e0       	ldi	r25, 0x00	; 0
    22f8:	25 e5       	ldi	r18, 0x55	; 85
    22fa:	30 e0       	ldi	r19, 0x00	; 0
    22fc:	f9 01       	movw	r30, r18
    22fe:	20 81       	ld	r18, Z
    2300:	22 60       	ori	r18, 0x02	; 2
    2302:	fc 01       	movw	r30, r24
    2304:	20 83       	st	Z, r18
    2306:	00 00       	nop
    2308:	87 c0       	rjmp	.+270    	; 0x2418 <EXI_TriggerEdge+0x1f6>
    230a:	8a 81       	ldd	r24, Y+2	; 0x02
    230c:	88 2f       	mov	r24, r24
    230e:	90 e0       	ldi	r25, 0x00	; 0
    2310:	81 30       	cpi	r24, 0x01	; 1
    2312:	91 05       	cpc	r25, r1
    2314:	f9 f0       	breq	.+62     	; 0x2354 <EXI_TriggerEdge+0x132>
    2316:	82 30       	cpi	r24, 0x02	; 2
    2318:	91 05       	cpc	r25, r1
    231a:	1c f4       	brge	.+6      	; 0x2322 <EXI_TriggerEdge+0x100>
    231c:	89 2b       	or	r24, r25
    231e:	39 f0       	breq	.+14     	; 0x232e <EXI_TriggerEdge+0x10c>
    2320:	7b c0       	rjmp	.+246    	; 0x2418 <EXI_TriggerEdge+0x1f6>
    2322:	82 30       	cpi	r24, 0x02	; 2
    2324:	91 05       	cpc	r25, r1
    2326:	49 f1       	breq	.+82     	; 0x237a <EXI_TriggerEdge+0x158>
    2328:	03 97       	sbiw	r24, 0x03	; 3
    232a:	d1 f1       	breq	.+116    	; 0x23a0 <EXI_TriggerEdge+0x17e>
    232c:	75 c0       	rjmp	.+234    	; 0x2418 <EXI_TriggerEdge+0x1f6>
    232e:	85 e5       	ldi	r24, 0x55	; 85
    2330:	90 e0       	ldi	r25, 0x00	; 0
    2332:	25 e5       	ldi	r18, 0x55	; 85
    2334:	30 e0       	ldi	r19, 0x00	; 0
    2336:	f9 01       	movw	r30, r18
    2338:	20 81       	ld	r18, Z
    233a:	2b 7f       	andi	r18, 0xFB	; 251
    233c:	fc 01       	movw	r30, r24
    233e:	20 83       	st	Z, r18
    2340:	85 e5       	ldi	r24, 0x55	; 85
    2342:	90 e0       	ldi	r25, 0x00	; 0
    2344:	25 e5       	ldi	r18, 0x55	; 85
    2346:	30 e0       	ldi	r19, 0x00	; 0
    2348:	f9 01       	movw	r30, r18
    234a:	20 81       	ld	r18, Z
    234c:	27 7f       	andi	r18, 0xF7	; 247
    234e:	fc 01       	movw	r30, r24
    2350:	20 83       	st	Z, r18
    2352:	39 c0       	rjmp	.+114    	; 0x23c6 <EXI_TriggerEdge+0x1a4>
    2354:	85 e5       	ldi	r24, 0x55	; 85
    2356:	90 e0       	ldi	r25, 0x00	; 0
    2358:	25 e5       	ldi	r18, 0x55	; 85
    235a:	30 e0       	ldi	r19, 0x00	; 0
    235c:	f9 01       	movw	r30, r18
    235e:	20 81       	ld	r18, Z
    2360:	24 60       	ori	r18, 0x04	; 4
    2362:	fc 01       	movw	r30, r24
    2364:	20 83       	st	Z, r18
    2366:	85 e5       	ldi	r24, 0x55	; 85
    2368:	90 e0       	ldi	r25, 0x00	; 0
    236a:	25 e5       	ldi	r18, 0x55	; 85
    236c:	30 e0       	ldi	r19, 0x00	; 0
    236e:	f9 01       	movw	r30, r18
    2370:	20 81       	ld	r18, Z
    2372:	27 7f       	andi	r18, 0xF7	; 247
    2374:	fc 01       	movw	r30, r24
    2376:	20 83       	st	Z, r18
    2378:	26 c0       	rjmp	.+76     	; 0x23c6 <EXI_TriggerEdge+0x1a4>
    237a:	85 e5       	ldi	r24, 0x55	; 85
    237c:	90 e0       	ldi	r25, 0x00	; 0
    237e:	25 e5       	ldi	r18, 0x55	; 85
    2380:	30 e0       	ldi	r19, 0x00	; 0
    2382:	f9 01       	movw	r30, r18
    2384:	20 81       	ld	r18, Z
    2386:	2b 7f       	andi	r18, 0xFB	; 251
    2388:	fc 01       	movw	r30, r24
    238a:	20 83       	st	Z, r18
    238c:	85 e5       	ldi	r24, 0x55	; 85
    238e:	90 e0       	ldi	r25, 0x00	; 0
    2390:	25 e5       	ldi	r18, 0x55	; 85
    2392:	30 e0       	ldi	r19, 0x00	; 0
    2394:	f9 01       	movw	r30, r18
    2396:	20 81       	ld	r18, Z
    2398:	28 60       	ori	r18, 0x08	; 8
    239a:	fc 01       	movw	r30, r24
    239c:	20 83       	st	Z, r18
    239e:	13 c0       	rjmp	.+38     	; 0x23c6 <EXI_TriggerEdge+0x1a4>
    23a0:	85 e5       	ldi	r24, 0x55	; 85
    23a2:	90 e0       	ldi	r25, 0x00	; 0
    23a4:	25 e5       	ldi	r18, 0x55	; 85
    23a6:	30 e0       	ldi	r19, 0x00	; 0
    23a8:	f9 01       	movw	r30, r18
    23aa:	20 81       	ld	r18, Z
    23ac:	24 60       	ori	r18, 0x04	; 4
    23ae:	fc 01       	movw	r30, r24
    23b0:	20 83       	st	Z, r18
    23b2:	85 e5       	ldi	r24, 0x55	; 85
    23b4:	90 e0       	ldi	r25, 0x00	; 0
    23b6:	25 e5       	ldi	r18, 0x55	; 85
    23b8:	30 e0       	ldi	r19, 0x00	; 0
    23ba:	f9 01       	movw	r30, r18
    23bc:	20 81       	ld	r18, Z
    23be:	28 60       	ori	r18, 0x08	; 8
    23c0:	fc 01       	movw	r30, r24
    23c2:	20 83       	st	Z, r18
    23c4:	00 00       	nop
    23c6:	28 c0       	rjmp	.+80     	; 0x2418 <EXI_TriggerEdge+0x1f6>
    23c8:	8a 81       	ldd	r24, Y+2	; 0x02
    23ca:	88 2f       	mov	r24, r24
    23cc:	90 e0       	ldi	r25, 0x00	; 0
    23ce:	82 30       	cpi	r24, 0x02	; 2
    23d0:	91 05       	cpc	r25, r1
    23d2:	19 f0       	breq	.+6      	; 0x23da <EXI_TriggerEdge+0x1b8>
    23d4:	03 97       	sbiw	r24, 0x03	; 3
    23d6:	59 f0       	breq	.+22     	; 0x23ee <EXI_TriggerEdge+0x1cc>
    23d8:	14 c0       	rjmp	.+40     	; 0x2402 <EXI_TriggerEdge+0x1e0>
    23da:	84 e5       	ldi	r24, 0x54	; 84
    23dc:	90 e0       	ldi	r25, 0x00	; 0
    23de:	24 e5       	ldi	r18, 0x54	; 84
    23e0:	30 e0       	ldi	r19, 0x00	; 0
    23e2:	f9 01       	movw	r30, r18
    23e4:	20 81       	ld	r18, Z
    23e6:	2f 7b       	andi	r18, 0xBF	; 191
    23e8:	fc 01       	movw	r30, r24
    23ea:	20 83       	st	Z, r18
    23ec:	14 c0       	rjmp	.+40     	; 0x2416 <EXI_TriggerEdge+0x1f4>
    23ee:	84 e5       	ldi	r24, 0x54	; 84
    23f0:	90 e0       	ldi	r25, 0x00	; 0
    23f2:	24 e5       	ldi	r18, 0x54	; 84
    23f4:	30 e0       	ldi	r19, 0x00	; 0
    23f6:	f9 01       	movw	r30, r18
    23f8:	20 81       	ld	r18, Z
    23fa:	20 64       	ori	r18, 0x40	; 64
    23fc:	fc 01       	movw	r30, r24
    23fe:	20 83       	st	Z, r18
    2400:	0a c0       	rjmp	.+20     	; 0x2416 <EXI_TriggerEdge+0x1f4>
    2402:	84 e5       	ldi	r24, 0x54	; 84
    2404:	90 e0       	ldi	r25, 0x00	; 0
    2406:	24 e5       	ldi	r18, 0x54	; 84
    2408:	30 e0       	ldi	r19, 0x00	; 0
    240a:	f9 01       	movw	r30, r18
    240c:	20 81       	ld	r18, Z
    240e:	2f 7b       	andi	r18, 0xBF	; 191
    2410:	fc 01       	movw	r30, r24
    2412:	20 83       	st	Z, r18
    2414:	00 c0       	rjmp	.+0      	; 0x2416 <EXI_TriggerEdge+0x1f4>
    2416:	00 00       	nop
    2418:	00 00       	nop
    241a:	0f 90       	pop	r0
    241c:	0f 90       	pop	r0
    241e:	df 91       	pop	r29
    2420:	cf 91       	pop	r28
    2422:	08 95       	ret

00002424 <EXI_SetCallBack>:
    2424:	cf 93       	push	r28
    2426:	df 93       	push	r29
    2428:	00 d0       	rcall	.+0      	; 0x242a <EXI_SetCallBack+0x6>
    242a:	1f 92       	push	r1
    242c:	cd b7       	in	r28, 0x3d	; 61
    242e:	de b7       	in	r29, 0x3e	; 62
    2430:	89 83       	std	Y+1, r24	; 0x01
    2432:	7b 83       	std	Y+3, r23	; 0x03
    2434:	6a 83       	std	Y+2, r22	; 0x02
    2436:	89 81       	ldd	r24, Y+1	; 0x01
    2438:	88 2f       	mov	r24, r24
    243a:	90 e0       	ldi	r25, 0x00	; 0
    243c:	81 30       	cpi	r24, 0x01	; 1
    243e:	91 05       	cpc	r25, r1
    2440:	69 f0       	breq	.+26     	; 0x245c <EXI_SetCallBack+0x38>
    2442:	82 30       	cpi	r24, 0x02	; 2
    2444:	91 05       	cpc	r25, r1
    2446:	89 f0       	breq	.+34     	; 0x246a <EXI_SetCallBack+0x46>
    2448:	89 2b       	or	r24, r25
    244a:	09 f0       	breq	.+2      	; 0x244e <EXI_SetCallBack+0x2a>
    244c:	15 c0       	rjmp	.+42     	; 0x2478 <EXI_SetCallBack+0x54>
    244e:	8a 81       	ldd	r24, Y+2	; 0x02
    2450:	9b 81       	ldd	r25, Y+3	; 0x03
    2452:	90 93 e6 00 	sts	0x00E6, r25	; 0x8000e6 <INT0_Fptr+0x1>
    2456:	80 93 e5 00 	sts	0x00E5, r24	; 0x8000e5 <INT0_Fptr>
    245a:	0e c0       	rjmp	.+28     	; 0x2478 <EXI_SetCallBack+0x54>
    245c:	8a 81       	ldd	r24, Y+2	; 0x02
    245e:	9b 81       	ldd	r25, Y+3	; 0x03
    2460:	90 93 e8 00 	sts	0x00E8, r25	; 0x8000e8 <INT1_Fptr+0x1>
    2464:	80 93 e7 00 	sts	0x00E7, r24	; 0x8000e7 <INT1_Fptr>
    2468:	07 c0       	rjmp	.+14     	; 0x2478 <EXI_SetCallBack+0x54>
    246a:	8a 81       	ldd	r24, Y+2	; 0x02
    246c:	9b 81       	ldd	r25, Y+3	; 0x03
    246e:	90 93 ea 00 	sts	0x00EA, r25	; 0x8000ea <INT2_Fptr+0x1>
    2472:	80 93 e9 00 	sts	0x00E9, r24	; 0x8000e9 <INT2_Fptr>
    2476:	00 00       	nop
    2478:	00 00       	nop
    247a:	0f 90       	pop	r0
    247c:	0f 90       	pop	r0
    247e:	0f 90       	pop	r0
    2480:	df 91       	pop	r29
    2482:	cf 91       	pop	r28
    2484:	08 95       	ret

00002486 <__vector_1>:
    2486:	1f 92       	push	r1
    2488:	0f 92       	push	r0
    248a:	00 90 5f 00 	lds	r0, 0x005F	; 0x80005f <__TEXT_REGION_LENGTH__+0x7f805f>
    248e:	0f 92       	push	r0
    2490:	11 24       	eor	r1, r1
    2492:	2f 93       	push	r18
    2494:	3f 93       	push	r19
    2496:	4f 93       	push	r20
    2498:	5f 93       	push	r21
    249a:	6f 93       	push	r22
    249c:	7f 93       	push	r23
    249e:	8f 93       	push	r24
    24a0:	9f 93       	push	r25
    24a2:	af 93       	push	r26
    24a4:	bf 93       	push	r27
    24a6:	ef 93       	push	r30
    24a8:	ff 93       	push	r31
    24aa:	cf 93       	push	r28
    24ac:	df 93       	push	r29
    24ae:	cd b7       	in	r28, 0x3d	; 61
    24b0:	de b7       	in	r29, 0x3e	; 62
    24b2:	80 91 e5 00 	lds	r24, 0x00E5	; 0x8000e5 <INT0_Fptr>
    24b6:	90 91 e6 00 	lds	r25, 0x00E6	; 0x8000e6 <INT0_Fptr+0x1>
    24ba:	89 2b       	or	r24, r25
    24bc:	31 f0       	breq	.+12     	; 0x24ca <__vector_1+0x44>
    24be:	80 91 e5 00 	lds	r24, 0x00E5	; 0x8000e5 <INT0_Fptr>
    24c2:	90 91 e6 00 	lds	r25, 0x00E6	; 0x8000e6 <INT0_Fptr+0x1>
    24c6:	fc 01       	movw	r30, r24
    24c8:	09 95       	icall
    24ca:	00 00       	nop
    24cc:	df 91       	pop	r29
    24ce:	cf 91       	pop	r28
    24d0:	ff 91       	pop	r31
    24d2:	ef 91       	pop	r30
    24d4:	bf 91       	pop	r27
    24d6:	af 91       	pop	r26
    24d8:	9f 91       	pop	r25
    24da:	8f 91       	pop	r24
    24dc:	7f 91       	pop	r23
    24de:	6f 91       	pop	r22
    24e0:	5f 91       	pop	r21
    24e2:	4f 91       	pop	r20
    24e4:	3f 91       	pop	r19
    24e6:	2f 91       	pop	r18
    24e8:	0f 90       	pop	r0
    24ea:	00 92 5f 00 	sts	0x005F, r0	; 0x80005f <__TEXT_REGION_LENGTH__+0x7f805f>
    24ee:	0f 90       	pop	r0
    24f0:	1f 90       	pop	r1
    24f2:	18 95       	reti

000024f4 <__vector_2>:
    24f4:	1f 92       	push	r1
    24f6:	0f 92       	push	r0
    24f8:	00 90 5f 00 	lds	r0, 0x005F	; 0x80005f <__TEXT_REGION_LENGTH__+0x7f805f>
    24fc:	0f 92       	push	r0
    24fe:	11 24       	eor	r1, r1
    2500:	2f 93       	push	r18
    2502:	3f 93       	push	r19
    2504:	4f 93       	push	r20
    2506:	5f 93       	push	r21
    2508:	6f 93       	push	r22
    250a:	7f 93       	push	r23
    250c:	8f 93       	push	r24
    250e:	9f 93       	push	r25
    2510:	af 93       	push	r26
    2512:	bf 93       	push	r27
    2514:	ef 93       	push	r30
    2516:	ff 93       	push	r31
    2518:	cf 93       	push	r28
    251a:	df 93       	push	r29
    251c:	cd b7       	in	r28, 0x3d	; 61
    251e:	de b7       	in	r29, 0x3e	; 62
    2520:	80 91 e7 00 	lds	r24, 0x00E7	; 0x8000e7 <INT1_Fptr>
    2524:	90 91 e8 00 	lds	r25, 0x00E8	; 0x8000e8 <INT1_Fptr+0x1>
    2528:	89 2b       	or	r24, r25
    252a:	31 f0       	breq	.+12     	; 0x2538 <__vector_2+0x44>
    252c:	80 91 e7 00 	lds	r24, 0x00E7	; 0x8000e7 <INT1_Fptr>
    2530:	90 91 e8 00 	lds	r25, 0x00E8	; 0x8000e8 <INT1_Fptr+0x1>
    2534:	fc 01       	movw	r30, r24
    2536:	09 95       	icall
    2538:	00 00       	nop
    253a:	df 91       	pop	r29
    253c:	cf 91       	pop	r28
    253e:	ff 91       	pop	r31
    2540:	ef 91       	pop	r30
    2542:	bf 91       	pop	r27
    2544:	af 91       	pop	r26
    2546:	9f 91       	pop	r25
    2548:	8f 91       	pop	r24
    254a:	7f 91       	pop	r23
    254c:	6f 91       	pop	r22
    254e:	5f 91       	pop	r21
    2550:	4f 91       	pop	r20
    2552:	3f 91       	pop	r19
    2554:	2f 91       	pop	r18
    2556:	0f 90       	pop	r0
    2558:	00 92 5f 00 	sts	0x005F, r0	; 0x80005f <__TEXT_REGION_LENGTH__+0x7f805f>
    255c:	0f 90       	pop	r0
    255e:	1f 90       	pop	r1
    2560:	18 95       	reti

00002562 <__vector_3>:
    2562:	1f 92       	push	r1
    2564:	0f 92       	push	r0
    2566:	00 90 5f 00 	lds	r0, 0x005F	; 0x80005f <__TEXT_REGION_LENGTH__+0x7f805f>
    256a:	0f 92       	push	r0
    256c:	11 24       	eor	r1, r1
    256e:	2f 93       	push	r18
    2570:	3f 93       	push	r19
    2572:	4f 93       	push	r20
    2574:	5f 93       	push	r21
    2576:	6f 93       	push	r22
    2578:	7f 93       	push	r23
    257a:	8f 93       	push	r24
    257c:	9f 93       	push	r25
    257e:	af 93       	push	r26
    2580:	bf 93       	push	r27
    2582:	ef 93       	push	r30
    2584:	ff 93       	push	r31
    2586:	cf 93       	push	r28
    2588:	df 93       	push	r29
    258a:	cd b7       	in	r28, 0x3d	; 61
    258c:	de b7       	in	r29, 0x3e	; 62
    258e:	80 91 e9 00 	lds	r24, 0x00E9	; 0x8000e9 <INT2_Fptr>
    2592:	90 91 ea 00 	lds	r25, 0x00EA	; 0x8000ea <INT2_Fptr+0x1>
    2596:	89 2b       	or	r24, r25
    2598:	31 f0       	breq	.+12     	; 0x25a6 <__vector_3+0x44>
    259a:	80 91 e9 00 	lds	r24, 0x00E9	; 0x8000e9 <INT2_Fptr>
    259e:	90 91 ea 00 	lds	r25, 0x00EA	; 0x8000ea <INT2_Fptr+0x1>
    25a2:	fc 01       	movw	r30, r24
    25a4:	09 95       	icall
    25a6:	00 00       	nop
    25a8:	df 91       	pop	r29
    25aa:	cf 91       	pop	r28
    25ac:	ff 91       	pop	r31
    25ae:	ef 91       	pop	r30
    25b0:	bf 91       	pop	r27
    25b2:	af 91       	pop	r26
    25b4:	9f 91       	pop	r25
    25b6:	8f 91       	pop	r24
    25b8:	7f 91       	pop	r23
    25ba:	6f 91       	pop	r22
    25bc:	5f 91       	pop	r21
    25be:	4f 91       	pop	r20
    25c0:	3f 91       	pop	r19
    25c2:	2f 91       	pop	r18
    25c4:	0f 90       	pop	r0
    25c6:	00 92 5f 00 	sts	0x005F, r0	; 0x80005f <__TEXT_REGION_LENGTH__+0x7f805f>
    25ca:	0f 90       	pop	r0
    25cc:	1f 90       	pop	r1
    25ce:	18 95       	reti

000025d0 <__vector_17>:
    25d0:	1f 92       	push	r1
    25d2:	0f 92       	push	r0
    25d4:	00 90 5f 00 	lds	r0, 0x005F	; 0x80005f <__TEXT_REGION_LENGTH__+0x7f805f>
    25d8:	0f 92       	push	r0
    25da:	11 24       	eor	r1, r1
    25dc:	2f 93       	push	r18
    25de:	3f 93       	push	r19
    25e0:	4f 93       	push	r20
    25e2:	5f 93       	push	r21
    25e4:	6f 93       	push	r22
    25e6:	7f 93       	push	r23
    25e8:	8f 93       	push	r24
    25ea:	9f 93       	push	r25
    25ec:	af 93       	push	r26
    25ee:	bf 93       	push	r27
    25f0:	ef 93       	push	r30
    25f2:	ff 93       	push	r31
    25f4:	cf 93       	push	r28
    25f6:	df 93       	push	r29
    25f8:	cd b7       	in	r28, 0x3d	; 61
    25fa:	de b7       	in	r29, 0x3e	; 62
    25fc:	80 91 eb 00 	lds	r24, 0x00EB	; 0x8000eb <NVM_Fptr>
    2600:	90 91 ec 00 	lds	r25, 0x00EC	; 0x8000ec <NVM_Fptr+0x1>
    2604:	89 2b       	or	r24, r25
    2606:	31 f0       	breq	.+12     	; 0x2614 <__vector_17+0x44>
    2608:	80 91 eb 00 	lds	r24, 0x00EB	; 0x8000eb <NVM_Fptr>
    260c:	90 91 ec 00 	lds	r25, 0x00EC	; 0x8000ec <NVM_Fptr+0x1>
    2610:	fc 01       	movw	r30, r24
    2612:	09 95       	icall
    2614:	00 00       	nop
    2616:	df 91       	pop	r29
    2618:	cf 91       	pop	r28
    261a:	ff 91       	pop	r31
    261c:	ef 91       	pop	r30
    261e:	bf 91       	pop	r27
    2620:	af 91       	pop	r26
    2622:	9f 91       	pop	r25
    2624:	8f 91       	pop	r24
    2626:	7f 91       	pop	r23
    2628:	6f 91       	pop	r22
    262a:	5f 91       	pop	r21
    262c:	4f 91       	pop	r20
    262e:	3f 91       	pop	r19
    2630:	2f 91       	pop	r18
    2632:	0f 90       	pop	r0
    2634:	00 92 5f 00 	sts	0x005F, r0	; 0x80005f <__TEXT_REGION_LENGTH__+0x7f805f>
    2638:	0f 90       	pop	r0
    263a:	1f 90       	pop	r1
    263c:	18 95       	reti

0000263e <__vector_12>:
    263e:	1f 92       	push	r1
    2640:	0f 92       	push	r0
    2642:	00 90 5f 00 	lds	r0, 0x005F	; 0x80005f <__TEXT_REGION_LENGTH__+0x7f805f>
    2646:	0f 92       	push	r0
    2648:	11 24       	eor	r1, r1
    264a:	2f 93       	push	r18
    264c:	3f 93       	push	r19
    264e:	4f 93       	push	r20
    2650:	5f 93       	push	r21
    2652:	6f 93       	push	r22
    2654:	7f 93       	push	r23
    2656:	8f 93       	push	r24
    2658:	9f 93       	push	r25
    265a:	af 93       	push	r26
    265c:	bf 93       	push	r27
    265e:	ef 93       	push	r30
    2660:	ff 93       	push	r31
    2662:	cf 93       	push	r28
    2664:	df 93       	push	r29
    2666:	cd b7       	in	r28, 0x3d	; 61
    2668:	de b7       	in	r29, 0x3e	; 62
    266a:	80 91 ed 00 	lds	r24, 0x00ED	; 0x8000ed <SPI_Fptr>
    266e:	90 91 ee 00 	lds	r25, 0x00EE	; 0x8000ee <SPI_Fptr+0x1>
    2672:	89 2b       	or	r24, r25
    2674:	31 f0       	breq	.+12     	; 0x2682 <__vector_12+0x44>
    2676:	80 91 ed 00 	lds	r24, 0x00ED	; 0x8000ed <SPI_Fptr>
    267a:	90 91 ee 00 	lds	r25, 0x00EE	; 0x8000ee <SPI_Fptr+0x1>
    267e:	fc 01       	movw	r30, r24
    2680:	09 95       	icall
    2682:	00 00       	nop
    2684:	df 91       	pop	r29
    2686:	cf 91       	pop	r28
    2688:	ff 91       	pop	r31
    268a:	ef 91       	pop	r30
    268c:	bf 91       	pop	r27
    268e:	af 91       	pop	r26
    2690:	9f 91       	pop	r25
    2692:	8f 91       	pop	r24
    2694:	7f 91       	pop	r23
    2696:	6f 91       	pop	r22
    2698:	5f 91       	pop	r21
    269a:	4f 91       	pop	r20
    269c:	3f 91       	pop	r19
    269e:	2f 91       	pop	r18
    26a0:	0f 90       	pop	r0
    26a2:	00 92 5f 00 	sts	0x005F, r0	; 0x80005f <__TEXT_REGION_LENGTH__+0x7f805f>
    26a6:	0f 90       	pop	r0
    26a8:	1f 90       	pop	r1
    26aa:	18 95       	reti

000026ac <__vector_11>:
    26ac:	1f 92       	push	r1
    26ae:	0f 92       	push	r0
    26b0:	00 90 5f 00 	lds	r0, 0x005F	; 0x80005f <__TEXT_REGION_LENGTH__+0x7f805f>
    26b4:	0f 92       	push	r0
    26b6:	11 24       	eor	r1, r1
    26b8:	2f 93       	push	r18
    26ba:	3f 93       	push	r19
    26bc:	4f 93       	push	r20
    26be:	5f 93       	push	r21
    26c0:	6f 93       	push	r22
    26c2:	7f 93       	push	r23
    26c4:	8f 93       	push	r24
    26c6:	9f 93       	push	r25
    26c8:	af 93       	push	r26
    26ca:	bf 93       	push	r27
    26cc:	ef 93       	push	r30
    26ce:	ff 93       	push	r31
    26d0:	cf 93       	push	r28
    26d2:	df 93       	push	r29
    26d4:	cd b7       	in	r28, 0x3d	; 61
    26d6:	de b7       	in	r29, 0x3e	; 62
    26d8:	82 e5       	ldi	r24, 0x52	; 82
    26da:	90 e0       	ldi	r25, 0x00	; 0
    26dc:	2c e9       	ldi	r18, 0x9C	; 156
    26de:	fc 01       	movw	r30, r24
    26e0:	20 83       	st	Z, r18
    26e2:	80 91 ef 00 	lds	r24, 0x00EF	; 0x8000ef <Timer0_OVF_Fptr>
    26e6:	90 91 f0 00 	lds	r25, 0x00F0	; 0x8000f0 <Timer0_OVF_Fptr+0x1>
    26ea:	89 2b       	or	r24, r25
    26ec:	31 f0       	breq	.+12     	; 0x26fa <__vector_11+0x4e>
    26ee:	80 91 ef 00 	lds	r24, 0x00EF	; 0x8000ef <Timer0_OVF_Fptr>
    26f2:	90 91 f0 00 	lds	r25, 0x00F0	; 0x8000f0 <Timer0_OVF_Fptr+0x1>
    26f6:	fc 01       	movw	r30, r24
    26f8:	09 95       	icall
    26fa:	00 00       	nop
    26fc:	df 91       	pop	r29
    26fe:	cf 91       	pop	r28
    2700:	ff 91       	pop	r31
    2702:	ef 91       	pop	r30
    2704:	bf 91       	pop	r27
    2706:	af 91       	pop	r26
    2708:	9f 91       	pop	r25
    270a:	8f 91       	pop	r24
    270c:	7f 91       	pop	r23
    270e:	6f 91       	pop	r22
    2710:	5f 91       	pop	r21
    2712:	4f 91       	pop	r20
    2714:	3f 91       	pop	r19
    2716:	2f 91       	pop	r18
    2718:	0f 90       	pop	r0
    271a:	00 92 5f 00 	sts	0x005F, r0	; 0x80005f <__TEXT_REGION_LENGTH__+0x7f805f>
    271e:	0f 90       	pop	r0
    2720:	1f 90       	pop	r1
    2722:	18 95       	reti

00002724 <Timer1_Init>:
    2724:	cf 93       	push	r28
    2726:	df 93       	push	r29
    2728:	00 d0       	rcall	.+0      	; 0x272a <Timer1_Init+0x6>
    272a:	cd b7       	in	r28, 0x3d	; 61
    272c:	de b7       	in	r29, 0x3e	; 62
    272e:	89 83       	std	Y+1, r24	; 0x01
    2730:	6a 83       	std	Y+2, r22	; 0x02
    2732:	89 81       	ldd	r24, Y+1	; 0x01
    2734:	88 2f       	mov	r24, r24
    2736:	90 e0       	ldi	r25, 0x00	; 0
    2738:	82 30       	cpi	r24, 0x02	; 2
    273a:	91 05       	cpc	r25, r1
    273c:	09 f4       	brne	.+2      	; 0x2740 <Timer1_Init+0x1c>
    273e:	5a c0       	rjmp	.+180    	; 0x27f4 <Timer1_Init+0xd0>
    2740:	83 30       	cpi	r24, 0x03	; 3
    2742:	91 05       	cpc	r25, r1
    2744:	2c f4       	brge	.+10     	; 0x2750 <Timer1_Init+0x2c>
    2746:	00 97       	sbiw	r24, 0x00	; 0
    2748:	59 f0       	breq	.+22     	; 0x2760 <Timer1_Init+0x3c>
    274a:	01 97       	sbiw	r24, 0x01	; 1
    274c:	71 f1       	breq	.+92     	; 0x27aa <Timer1_Init+0x86>
    274e:	c1 c0       	rjmp	.+386    	; 0x28d2 <Timer1_Init+0x1ae>
    2750:	83 30       	cpi	r24, 0x03	; 3
    2752:	91 05       	cpc	r25, r1
    2754:	09 f4       	brne	.+2      	; 0x2758 <Timer1_Init+0x34>
    2756:	73 c0       	rjmp	.+230    	; 0x283e <Timer1_Init+0x11a>
    2758:	04 97       	sbiw	r24, 0x04	; 4
    275a:	09 f4       	brne	.+2      	; 0x275e <Timer1_Init+0x3a>
    275c:	95 c0       	rjmp	.+298    	; 0x2888 <Timer1_Init+0x164>
    275e:	b9 c0       	rjmp	.+370    	; 0x28d2 <Timer1_Init+0x1ae>
    2760:	8f e4       	ldi	r24, 0x4F	; 79
    2762:	90 e0       	ldi	r25, 0x00	; 0
    2764:	2f e4       	ldi	r18, 0x4F	; 79
    2766:	30 e0       	ldi	r19, 0x00	; 0
    2768:	f9 01       	movw	r30, r18
    276a:	20 81       	ld	r18, Z
    276c:	2e 7f       	andi	r18, 0xFE	; 254
    276e:	fc 01       	movw	r30, r24
    2770:	20 83       	st	Z, r18
    2772:	8f e4       	ldi	r24, 0x4F	; 79
    2774:	90 e0       	ldi	r25, 0x00	; 0
    2776:	2f e4       	ldi	r18, 0x4F	; 79
    2778:	30 e0       	ldi	r19, 0x00	; 0
    277a:	f9 01       	movw	r30, r18
    277c:	20 81       	ld	r18, Z
    277e:	2d 7f       	andi	r18, 0xFD	; 253
    2780:	fc 01       	movw	r30, r24
    2782:	20 83       	st	Z, r18
    2784:	8e e4       	ldi	r24, 0x4E	; 78
    2786:	90 e0       	ldi	r25, 0x00	; 0
    2788:	2e e4       	ldi	r18, 0x4E	; 78
    278a:	30 e0       	ldi	r19, 0x00	; 0
    278c:	f9 01       	movw	r30, r18
    278e:	20 81       	ld	r18, Z
    2790:	27 7f       	andi	r18, 0xF7	; 247
    2792:	fc 01       	movw	r30, r24
    2794:	20 83       	st	Z, r18
    2796:	8e e4       	ldi	r24, 0x4E	; 78
    2798:	90 e0       	ldi	r25, 0x00	; 0
    279a:	2e e4       	ldi	r18, 0x4E	; 78
    279c:	30 e0       	ldi	r19, 0x00	; 0
    279e:	f9 01       	movw	r30, r18
    27a0:	20 81       	ld	r18, Z
    27a2:	2f 7e       	andi	r18, 0xEF	; 239
    27a4:	fc 01       	movw	r30, r24
    27a6:	20 83       	st	Z, r18
    27a8:	94 c0       	rjmp	.+296    	; 0x28d2 <Timer1_Init+0x1ae>
    27aa:	8f e4       	ldi	r24, 0x4F	; 79
    27ac:	90 e0       	ldi	r25, 0x00	; 0
    27ae:	2f e4       	ldi	r18, 0x4F	; 79
    27b0:	30 e0       	ldi	r19, 0x00	; 0
    27b2:	f9 01       	movw	r30, r18
    27b4:	20 81       	ld	r18, Z
    27b6:	2e 7f       	andi	r18, 0xFE	; 254
    27b8:	fc 01       	movw	r30, r24
    27ba:	20 83       	st	Z, r18
    27bc:	8f e4       	ldi	r24, 0x4F	; 79
    27be:	90 e0       	ldi	r25, 0x00	; 0
    27c0:	2f e4       	ldi	r18, 0x4F	; 79
    27c2:	30 e0       	ldi	r19, 0x00	; 0
    27c4:	f9 01       	movw	r30, r18
    27c6:	20 81       	ld	r18, Z
    27c8:	2d 7f       	andi	r18, 0xFD	; 253
    27ca:	fc 01       	movw	r30, r24
    27cc:	20 83       	st	Z, r18
    27ce:	8e e4       	ldi	r24, 0x4E	; 78
    27d0:	90 e0       	ldi	r25, 0x00	; 0
    27d2:	2e e4       	ldi	r18, 0x4E	; 78
    27d4:	30 e0       	ldi	r19, 0x00	; 0
    27d6:	f9 01       	movw	r30, r18
    27d8:	20 81       	ld	r18, Z
    27da:	28 60       	ori	r18, 0x08	; 8
    27dc:	fc 01       	movw	r30, r24
    27de:	20 83       	st	Z, r18
    27e0:	8e e4       	ldi	r24, 0x4E	; 78
    27e2:	90 e0       	ldi	r25, 0x00	; 0
    27e4:	2e e4       	ldi	r18, 0x4E	; 78
    27e6:	30 e0       	ldi	r19, 0x00	; 0
    27e8:	f9 01       	movw	r30, r18
    27ea:	20 81       	ld	r18, Z
    27ec:	20 61       	ori	r18, 0x10	; 16
    27ee:	fc 01       	movw	r30, r24
    27f0:	20 83       	st	Z, r18
    27f2:	6f c0       	rjmp	.+222    	; 0x28d2 <Timer1_Init+0x1ae>
    27f4:	8f e4       	ldi	r24, 0x4F	; 79
    27f6:	90 e0       	ldi	r25, 0x00	; 0
    27f8:	2f e4       	ldi	r18, 0x4F	; 79
    27fa:	30 e0       	ldi	r19, 0x00	; 0
    27fc:	f9 01       	movw	r30, r18
    27fe:	20 81       	ld	r18, Z
    2800:	2e 7f       	andi	r18, 0xFE	; 254
    2802:	fc 01       	movw	r30, r24
    2804:	20 83       	st	Z, r18
    2806:	8f e4       	ldi	r24, 0x4F	; 79
    2808:	90 e0       	ldi	r25, 0x00	; 0
    280a:	2f e4       	ldi	r18, 0x4F	; 79
    280c:	30 e0       	ldi	r19, 0x00	; 0
    280e:	f9 01       	movw	r30, r18
    2810:	20 81       	ld	r18, Z
    2812:	2d 7f       	andi	r18, 0xFD	; 253
    2814:	fc 01       	movw	r30, r24
    2816:	20 83       	st	Z, r18
    2818:	8e e4       	ldi	r24, 0x4E	; 78
    281a:	90 e0       	ldi	r25, 0x00	; 0
    281c:	2e e4       	ldi	r18, 0x4E	; 78
    281e:	30 e0       	ldi	r19, 0x00	; 0
    2820:	f9 01       	movw	r30, r18
    2822:	20 81       	ld	r18, Z
    2824:	28 60       	ori	r18, 0x08	; 8
    2826:	fc 01       	movw	r30, r24
    2828:	20 83       	st	Z, r18
    282a:	8e e4       	ldi	r24, 0x4E	; 78
    282c:	90 e0       	ldi	r25, 0x00	; 0
    282e:	2e e4       	ldi	r18, 0x4E	; 78
    2830:	30 e0       	ldi	r19, 0x00	; 0
    2832:	f9 01       	movw	r30, r18
    2834:	20 81       	ld	r18, Z
    2836:	2f 7e       	andi	r18, 0xEF	; 239
    2838:	fc 01       	movw	r30, r24
    283a:	20 83       	st	Z, r18
    283c:	4a c0       	rjmp	.+148    	; 0x28d2 <Timer1_Init+0x1ae>
    283e:	8f e4       	ldi	r24, 0x4F	; 79
    2840:	90 e0       	ldi	r25, 0x00	; 0
    2842:	2f e4       	ldi	r18, 0x4F	; 79
    2844:	30 e0       	ldi	r19, 0x00	; 0
    2846:	f9 01       	movw	r30, r18
    2848:	20 81       	ld	r18, Z
    284a:	2e 7f       	andi	r18, 0xFE	; 254
    284c:	fc 01       	movw	r30, r24
    284e:	20 83       	st	Z, r18
    2850:	8f e4       	ldi	r24, 0x4F	; 79
    2852:	90 e0       	ldi	r25, 0x00	; 0
    2854:	2f e4       	ldi	r18, 0x4F	; 79
    2856:	30 e0       	ldi	r19, 0x00	; 0
    2858:	f9 01       	movw	r30, r18
    285a:	20 81       	ld	r18, Z
    285c:	22 60       	ori	r18, 0x02	; 2
    285e:	fc 01       	movw	r30, r24
    2860:	20 83       	st	Z, r18
    2862:	8e e4       	ldi	r24, 0x4E	; 78
    2864:	90 e0       	ldi	r25, 0x00	; 0
    2866:	2e e4       	ldi	r18, 0x4E	; 78
    2868:	30 e0       	ldi	r19, 0x00	; 0
    286a:	f9 01       	movw	r30, r18
    286c:	20 81       	ld	r18, Z
    286e:	28 60       	ori	r18, 0x08	; 8
    2870:	fc 01       	movw	r30, r24
    2872:	20 83       	st	Z, r18
    2874:	8e e4       	ldi	r24, 0x4E	; 78
    2876:	90 e0       	ldi	r25, 0x00	; 0
    2878:	2e e4       	ldi	r18, 0x4E	; 78
    287a:	30 e0       	ldi	r19, 0x00	; 0
    287c:	f9 01       	movw	r30, r18
    287e:	20 81       	ld	r18, Z
    2880:	20 61       	ori	r18, 0x10	; 16
    2882:	fc 01       	movw	r30, r24
    2884:	20 83       	st	Z, r18
    2886:	25 c0       	rjmp	.+74     	; 0x28d2 <Timer1_Init+0x1ae>
    2888:	8f e4       	ldi	r24, 0x4F	; 79
    288a:	90 e0       	ldi	r25, 0x00	; 0
    288c:	2f e4       	ldi	r18, 0x4F	; 79
    288e:	30 e0       	ldi	r19, 0x00	; 0
    2890:	f9 01       	movw	r30, r18
    2892:	20 81       	ld	r18, Z
    2894:	21 60       	ori	r18, 0x01	; 1
    2896:	fc 01       	movw	r30, r24
    2898:	20 83       	st	Z, r18
    289a:	8f e4       	ldi	r24, 0x4F	; 79
    289c:	90 e0       	ldi	r25, 0x00	; 0
    289e:	2f e4       	ldi	r18, 0x4F	; 79
    28a0:	30 e0       	ldi	r19, 0x00	; 0
    28a2:	f9 01       	movw	r30, r18
    28a4:	20 81       	ld	r18, Z
    28a6:	22 60       	ori	r18, 0x02	; 2
    28a8:	fc 01       	movw	r30, r24
    28aa:	20 83       	st	Z, r18
    28ac:	8e e4       	ldi	r24, 0x4E	; 78
    28ae:	90 e0       	ldi	r25, 0x00	; 0
    28b0:	2e e4       	ldi	r18, 0x4E	; 78
    28b2:	30 e0       	ldi	r19, 0x00	; 0
    28b4:	f9 01       	movw	r30, r18
    28b6:	20 81       	ld	r18, Z
    28b8:	28 60       	ori	r18, 0x08	; 8
    28ba:	fc 01       	movw	r30, r24
    28bc:	20 83       	st	Z, r18
    28be:	8e e4       	ldi	r24, 0x4E	; 78
    28c0:	90 e0       	ldi	r25, 0x00	; 0
    28c2:	2e e4       	ldi	r18, 0x4E	; 78
    28c4:	30 e0       	ldi	r19, 0x00	; 0
    28c6:	f9 01       	movw	r30, r18
    28c8:	20 81       	ld	r18, Z
    28ca:	20 61       	ori	r18, 0x10	; 16
    28cc:	fc 01       	movw	r30, r24
    28ce:	20 83       	st	Z, r18
    28d0:	00 00       	nop
    28d2:	8e e4       	ldi	r24, 0x4E	; 78
    28d4:	90 e0       	ldi	r25, 0x00	; 0
    28d6:	2e e4       	ldi	r18, 0x4E	; 78
    28d8:	30 e0       	ldi	r19, 0x00	; 0
    28da:	f9 01       	movw	r30, r18
    28dc:	20 81       	ld	r18, Z
    28de:	28 7f       	andi	r18, 0xF8	; 248
    28e0:	fc 01       	movw	r30, r24
    28e2:	20 83       	st	Z, r18
    28e4:	8e e4       	ldi	r24, 0x4E	; 78
    28e6:	90 e0       	ldi	r25, 0x00	; 0
    28e8:	2e e4       	ldi	r18, 0x4E	; 78
    28ea:	30 e0       	ldi	r19, 0x00	; 0
    28ec:	f9 01       	movw	r30, r18
    28ee:	30 81       	ld	r19, Z
    28f0:	2a 81       	ldd	r18, Y+2	; 0x02
    28f2:	23 2b       	or	r18, r19
    28f4:	fc 01       	movw	r30, r24
    28f6:	20 83       	st	Z, r18
    28f8:	00 00       	nop
    28fa:	0f 90       	pop	r0
    28fc:	0f 90       	pop	r0
    28fe:	df 91       	pop	r29
    2900:	cf 91       	pop	r28
    2902:	08 95       	ret

00002904 <Timer1_OCRA1Mode>:
    2904:	cf 93       	push	r28
    2906:	df 93       	push	r29
    2908:	1f 92       	push	r1
    290a:	cd b7       	in	r28, 0x3d	; 61
    290c:	de b7       	in	r29, 0x3e	; 62
    290e:	89 83       	std	Y+1, r24	; 0x01
    2910:	89 81       	ldd	r24, Y+1	; 0x01
    2912:	88 2f       	mov	r24, r24
    2914:	90 e0       	ldi	r25, 0x00	; 0
    2916:	81 30       	cpi	r24, 0x01	; 1
    2918:	91 05       	cpc	r25, r1
    291a:	f9 f0       	breq	.+62     	; 0x295a <Timer1_OCRA1Mode+0x56>
    291c:	82 30       	cpi	r24, 0x02	; 2
    291e:	91 05       	cpc	r25, r1
    2920:	1c f4       	brge	.+6      	; 0x2928 <Timer1_OCRA1Mode+0x24>
    2922:	89 2b       	or	r24, r25
    2924:	39 f0       	breq	.+14     	; 0x2934 <Timer1_OCRA1Mode+0x30>
    2926:	52 c0       	rjmp	.+164    	; 0x29cc <Timer1_OCRA1Mode+0xc8>
    2928:	82 30       	cpi	r24, 0x02	; 2
    292a:	91 05       	cpc	r25, r1
    292c:	49 f1       	breq	.+82     	; 0x2980 <Timer1_OCRA1Mode+0x7c>
    292e:	03 97       	sbiw	r24, 0x03	; 3
    2930:	d1 f1       	breq	.+116    	; 0x29a6 <Timer1_OCRA1Mode+0xa2>
    2932:	4c c0       	rjmp	.+152    	; 0x29cc <Timer1_OCRA1Mode+0xc8>
    2934:	8f e4       	ldi	r24, 0x4F	; 79
    2936:	90 e0       	ldi	r25, 0x00	; 0
    2938:	2f e4       	ldi	r18, 0x4F	; 79
    293a:	30 e0       	ldi	r19, 0x00	; 0
    293c:	f9 01       	movw	r30, r18
    293e:	20 81       	ld	r18, Z
    2940:	2f 7b       	andi	r18, 0xBF	; 191
    2942:	fc 01       	movw	r30, r24
    2944:	20 83       	st	Z, r18
    2946:	8f e4       	ldi	r24, 0x4F	; 79
    2948:	90 e0       	ldi	r25, 0x00	; 0
    294a:	2f e4       	ldi	r18, 0x4F	; 79
    294c:	30 e0       	ldi	r19, 0x00	; 0
    294e:	f9 01       	movw	r30, r18
    2950:	20 81       	ld	r18, Z
    2952:	2f 77       	andi	r18, 0x7F	; 127
    2954:	fc 01       	movw	r30, r24
    2956:	20 83       	st	Z, r18
    2958:	39 c0       	rjmp	.+114    	; 0x29cc <Timer1_OCRA1Mode+0xc8>
    295a:	8f e4       	ldi	r24, 0x4F	; 79
    295c:	90 e0       	ldi	r25, 0x00	; 0
    295e:	2f e4       	ldi	r18, 0x4F	; 79
    2960:	30 e0       	ldi	r19, 0x00	; 0
    2962:	f9 01       	movw	r30, r18
    2964:	20 81       	ld	r18, Z
    2966:	20 64       	ori	r18, 0x40	; 64
    2968:	fc 01       	movw	r30, r24
    296a:	20 83       	st	Z, r18
    296c:	8f e4       	ldi	r24, 0x4F	; 79
    296e:	90 e0       	ldi	r25, 0x00	; 0
    2970:	2f e4       	ldi	r18, 0x4F	; 79
    2972:	30 e0       	ldi	r19, 0x00	; 0
    2974:	f9 01       	movw	r30, r18
    2976:	20 81       	ld	r18, Z
    2978:	2f 77       	andi	r18, 0x7F	; 127
    297a:	fc 01       	movw	r30, r24
    297c:	20 83       	st	Z, r18
    297e:	26 c0       	rjmp	.+76     	; 0x29cc <Timer1_OCRA1Mode+0xc8>
    2980:	8f e4       	ldi	r24, 0x4F	; 79
    2982:	90 e0       	ldi	r25, 0x00	; 0
    2984:	2f e4       	ldi	r18, 0x4F	; 79
    2986:	30 e0       	ldi	r19, 0x00	; 0
    2988:	f9 01       	movw	r30, r18
    298a:	20 81       	ld	r18, Z
    298c:	2f 7b       	andi	r18, 0xBF	; 191
    298e:	fc 01       	movw	r30, r24
    2990:	20 83       	st	Z, r18
    2992:	8f e4       	ldi	r24, 0x4F	; 79
    2994:	90 e0       	ldi	r25, 0x00	; 0
    2996:	2f e4       	ldi	r18, 0x4F	; 79
    2998:	30 e0       	ldi	r19, 0x00	; 0
    299a:	f9 01       	movw	r30, r18
    299c:	20 81       	ld	r18, Z
    299e:	20 68       	ori	r18, 0x80	; 128
    29a0:	fc 01       	movw	r30, r24
    29a2:	20 83       	st	Z, r18
    29a4:	13 c0       	rjmp	.+38     	; 0x29cc <Timer1_OCRA1Mode+0xc8>
    29a6:	8f e4       	ldi	r24, 0x4F	; 79
    29a8:	90 e0       	ldi	r25, 0x00	; 0
    29aa:	2f e4       	ldi	r18, 0x4F	; 79
    29ac:	30 e0       	ldi	r19, 0x00	; 0
    29ae:	f9 01       	movw	r30, r18
    29b0:	20 81       	ld	r18, Z
    29b2:	20 64       	ori	r18, 0x40	; 64
    29b4:	fc 01       	movw	r30, r24
    29b6:	20 83       	st	Z, r18
    29b8:	8f e4       	ldi	r24, 0x4F	; 79
    29ba:	90 e0       	ldi	r25, 0x00	; 0
    29bc:	2f e4       	ldi	r18, 0x4F	; 79
    29be:	30 e0       	ldi	r19, 0x00	; 0
    29c0:	f9 01       	movw	r30, r18
    29c2:	20 81       	ld	r18, Z
    29c4:	20 68       	ori	r18, 0x80	; 128
    29c6:	fc 01       	movw	r30, r24
    29c8:	20 83       	st	Z, r18
    29ca:	00 00       	nop
    29cc:	00 00       	nop
    29ce:	0f 90       	pop	r0
    29d0:	df 91       	pop	r29
    29d2:	cf 91       	pop	r28
    29d4:	08 95       	ret

000029d6 <Timer1_OCRB1Mode>:
    29d6:	cf 93       	push	r28
    29d8:	df 93       	push	r29
    29da:	1f 92       	push	r1
    29dc:	cd b7       	in	r28, 0x3d	; 61
    29de:	de b7       	in	r29, 0x3e	; 62
    29e0:	89 83       	std	Y+1, r24	; 0x01
    29e2:	89 81       	ldd	r24, Y+1	; 0x01
    29e4:	88 2f       	mov	r24, r24
    29e6:	90 e0       	ldi	r25, 0x00	; 0
    29e8:	81 30       	cpi	r24, 0x01	; 1
    29ea:	91 05       	cpc	r25, r1
    29ec:	f9 f0       	breq	.+62     	; 0x2a2c <Timer1_OCRB1Mode+0x56>
    29ee:	82 30       	cpi	r24, 0x02	; 2
    29f0:	91 05       	cpc	r25, r1
    29f2:	1c f4       	brge	.+6      	; 0x29fa <Timer1_OCRB1Mode+0x24>
    29f4:	89 2b       	or	r24, r25
    29f6:	39 f0       	breq	.+14     	; 0x2a06 <Timer1_OCRB1Mode+0x30>
    29f8:	52 c0       	rjmp	.+164    	; 0x2a9e <Timer1_OCRB1Mode+0xc8>
    29fa:	82 30       	cpi	r24, 0x02	; 2
    29fc:	91 05       	cpc	r25, r1
    29fe:	49 f1       	breq	.+82     	; 0x2a52 <Timer1_OCRB1Mode+0x7c>
    2a00:	03 97       	sbiw	r24, 0x03	; 3
    2a02:	d1 f1       	breq	.+116    	; 0x2a78 <Timer1_OCRB1Mode+0xa2>
    2a04:	4c c0       	rjmp	.+152    	; 0x2a9e <Timer1_OCRB1Mode+0xc8>
    2a06:	8f e4       	ldi	r24, 0x4F	; 79
    2a08:	90 e0       	ldi	r25, 0x00	; 0
    2a0a:	2f e4       	ldi	r18, 0x4F	; 79
    2a0c:	30 e0       	ldi	r19, 0x00	; 0
    2a0e:	f9 01       	movw	r30, r18
    2a10:	20 81       	ld	r18, Z
    2a12:	2f 7e       	andi	r18, 0xEF	; 239
    2a14:	fc 01       	movw	r30, r24
    2a16:	20 83       	st	Z, r18
    2a18:	8f e4       	ldi	r24, 0x4F	; 79
    2a1a:	90 e0       	ldi	r25, 0x00	; 0
    2a1c:	2f e4       	ldi	r18, 0x4F	; 79
    2a1e:	30 e0       	ldi	r19, 0x00	; 0
    2a20:	f9 01       	movw	r30, r18
    2a22:	20 81       	ld	r18, Z
    2a24:	2f 7d       	andi	r18, 0xDF	; 223
    2a26:	fc 01       	movw	r30, r24
    2a28:	20 83       	st	Z, r18
    2a2a:	39 c0       	rjmp	.+114    	; 0x2a9e <Timer1_OCRB1Mode+0xc8>
    2a2c:	8f e4       	ldi	r24, 0x4F	; 79
    2a2e:	90 e0       	ldi	r25, 0x00	; 0
    2a30:	2f e4       	ldi	r18, 0x4F	; 79
    2a32:	30 e0       	ldi	r19, 0x00	; 0
    2a34:	f9 01       	movw	r30, r18
    2a36:	20 81       	ld	r18, Z
    2a38:	20 61       	ori	r18, 0x10	; 16
    2a3a:	fc 01       	movw	r30, r24
    2a3c:	20 83       	st	Z, r18
    2a3e:	8f e4       	ldi	r24, 0x4F	; 79
    2a40:	90 e0       	ldi	r25, 0x00	; 0
    2a42:	2f e4       	ldi	r18, 0x4F	; 79
    2a44:	30 e0       	ldi	r19, 0x00	; 0
    2a46:	f9 01       	movw	r30, r18
    2a48:	20 81       	ld	r18, Z
    2a4a:	2f 7d       	andi	r18, 0xDF	; 223
    2a4c:	fc 01       	movw	r30, r24
    2a4e:	20 83       	st	Z, r18
    2a50:	26 c0       	rjmp	.+76     	; 0x2a9e <Timer1_OCRB1Mode+0xc8>
    2a52:	8f e4       	ldi	r24, 0x4F	; 79
    2a54:	90 e0       	ldi	r25, 0x00	; 0
    2a56:	2f e4       	ldi	r18, 0x4F	; 79
    2a58:	30 e0       	ldi	r19, 0x00	; 0
    2a5a:	f9 01       	movw	r30, r18
    2a5c:	20 81       	ld	r18, Z
    2a5e:	2f 7e       	andi	r18, 0xEF	; 239
    2a60:	fc 01       	movw	r30, r24
    2a62:	20 83       	st	Z, r18
    2a64:	8f e4       	ldi	r24, 0x4F	; 79
    2a66:	90 e0       	ldi	r25, 0x00	; 0
    2a68:	2f e4       	ldi	r18, 0x4F	; 79
    2a6a:	30 e0       	ldi	r19, 0x00	; 0
    2a6c:	f9 01       	movw	r30, r18
    2a6e:	20 81       	ld	r18, Z
    2a70:	20 62       	ori	r18, 0x20	; 32
    2a72:	fc 01       	movw	r30, r24
    2a74:	20 83       	st	Z, r18
    2a76:	13 c0       	rjmp	.+38     	; 0x2a9e <Timer1_OCRB1Mode+0xc8>
    2a78:	8f e4       	ldi	r24, 0x4F	; 79
    2a7a:	90 e0       	ldi	r25, 0x00	; 0
    2a7c:	2f e4       	ldi	r18, 0x4F	; 79
    2a7e:	30 e0       	ldi	r19, 0x00	; 0
    2a80:	f9 01       	movw	r30, r18
    2a82:	20 81       	ld	r18, Z
    2a84:	20 61       	ori	r18, 0x10	; 16
    2a86:	fc 01       	movw	r30, r24
    2a88:	20 83       	st	Z, r18
    2a8a:	8f e4       	ldi	r24, 0x4F	; 79
    2a8c:	90 e0       	ldi	r25, 0x00	; 0
    2a8e:	2f e4       	ldi	r18, 0x4F	; 79
    2a90:	30 e0       	ldi	r19, 0x00	; 0
    2a92:	f9 01       	movw	r30, r18
    2a94:	20 81       	ld	r18, Z
    2a96:	20 62       	ori	r18, 0x20	; 32
    2a98:	fc 01       	movw	r30, r24
    2a9a:	20 83       	st	Z, r18
    2a9c:	00 00       	nop
    2a9e:	00 00       	nop
    2aa0:	0f 90       	pop	r0
    2aa2:	df 91       	pop	r29
    2aa4:	cf 91       	pop	r28
    2aa6:	08 95       	ret

00002aa8 <__vector_9>:
    2aa8:	1f 92       	push	r1
    2aaa:	0f 92       	push	r0
    2aac:	00 90 5f 00 	lds	r0, 0x005F	; 0x80005f <__TEXT_REGION_LENGTH__+0x7f805f>
    2ab0:	0f 92       	push	r0
    2ab2:	11 24       	eor	r1, r1
    2ab4:	2f 93       	push	r18
    2ab6:	3f 93       	push	r19
    2ab8:	4f 93       	push	r20
    2aba:	5f 93       	push	r21
    2abc:	6f 93       	push	r22
    2abe:	7f 93       	push	r23
    2ac0:	8f 93       	push	r24
    2ac2:	9f 93       	push	r25
    2ac4:	af 93       	push	r26
    2ac6:	bf 93       	push	r27
    2ac8:	ef 93       	push	r30
    2aca:	ff 93       	push	r31
    2acc:	cf 93       	push	r28
    2ace:	df 93       	push	r29
    2ad0:	cd b7       	in	r28, 0x3d	; 61
    2ad2:	de b7       	in	r29, 0x3e	; 62
    2ad4:	80 91 f1 00 	lds	r24, 0x00F1	; 0x8000f1 <Timer1_OVF_Fptr>
    2ad8:	90 91 f2 00 	lds	r25, 0x00F2	; 0x8000f2 <Timer1_OVF_Fptr+0x1>
    2adc:	89 2b       	or	r24, r25
    2ade:	31 f0       	breq	.+12     	; 0x2aec <__vector_9+0x44>
    2ae0:	80 91 f1 00 	lds	r24, 0x00F1	; 0x8000f1 <Timer1_OVF_Fptr>
    2ae4:	90 91 f2 00 	lds	r25, 0x00F2	; 0x8000f2 <Timer1_OVF_Fptr+0x1>
    2ae8:	fc 01       	movw	r30, r24
    2aea:	09 95       	icall
    2aec:	00 00       	nop
    2aee:	df 91       	pop	r29
    2af0:	cf 91       	pop	r28
    2af2:	ff 91       	pop	r31
    2af4:	ef 91       	pop	r30
    2af6:	bf 91       	pop	r27
    2af8:	af 91       	pop	r26
    2afa:	9f 91       	pop	r25
    2afc:	8f 91       	pop	r24
    2afe:	7f 91       	pop	r23
    2b00:	6f 91       	pop	r22
    2b02:	5f 91       	pop	r21
    2b04:	4f 91       	pop	r20
    2b06:	3f 91       	pop	r19
    2b08:	2f 91       	pop	r18
    2b0a:	0f 90       	pop	r0
    2b0c:	00 92 5f 00 	sts	0x005F, r0	; 0x80005f <__TEXT_REGION_LENGTH__+0x7f805f>
    2b10:	0f 90       	pop	r0
    2b12:	1f 90       	pop	r1
    2b14:	18 95       	reti

00002b16 <__vector_7>:
    2b16:	1f 92       	push	r1
    2b18:	0f 92       	push	r0
    2b1a:	00 90 5f 00 	lds	r0, 0x005F	; 0x80005f <__TEXT_REGION_LENGTH__+0x7f805f>
    2b1e:	0f 92       	push	r0
    2b20:	11 24       	eor	r1, r1
    2b22:	2f 93       	push	r18
    2b24:	3f 93       	push	r19
    2b26:	4f 93       	push	r20
    2b28:	5f 93       	push	r21
    2b2a:	6f 93       	push	r22
    2b2c:	7f 93       	push	r23
    2b2e:	8f 93       	push	r24
    2b30:	9f 93       	push	r25
    2b32:	af 93       	push	r26
    2b34:	bf 93       	push	r27
    2b36:	ef 93       	push	r30
    2b38:	ff 93       	push	r31
    2b3a:	cf 93       	push	r28
    2b3c:	df 93       	push	r29
    2b3e:	cd b7       	in	r28, 0x3d	; 61
    2b40:	de b7       	in	r29, 0x3e	; 62
    2b42:	80 91 f3 00 	lds	r24, 0x00F3	; 0x8000f3 <Timer1_OCA_Fptr>
    2b46:	90 91 f4 00 	lds	r25, 0x00F4	; 0x8000f4 <Timer1_OCA_Fptr+0x1>
    2b4a:	89 2b       	or	r24, r25
    2b4c:	31 f0       	breq	.+12     	; 0x2b5a <__vector_7+0x44>
    2b4e:	80 91 f3 00 	lds	r24, 0x00F3	; 0x8000f3 <Timer1_OCA_Fptr>
    2b52:	90 91 f4 00 	lds	r25, 0x00F4	; 0x8000f4 <Timer1_OCA_Fptr+0x1>
    2b56:	fc 01       	movw	r30, r24
    2b58:	09 95       	icall
    2b5a:	00 00       	nop
    2b5c:	df 91       	pop	r29
    2b5e:	cf 91       	pop	r28
    2b60:	ff 91       	pop	r31
    2b62:	ef 91       	pop	r30
    2b64:	bf 91       	pop	r27
    2b66:	af 91       	pop	r26
    2b68:	9f 91       	pop	r25
    2b6a:	8f 91       	pop	r24
    2b6c:	7f 91       	pop	r23
    2b6e:	6f 91       	pop	r22
    2b70:	5f 91       	pop	r21
    2b72:	4f 91       	pop	r20
    2b74:	3f 91       	pop	r19
    2b76:	2f 91       	pop	r18
    2b78:	0f 90       	pop	r0
    2b7a:	00 92 5f 00 	sts	0x005F, r0	; 0x80005f <__TEXT_REGION_LENGTH__+0x7f805f>
    2b7e:	0f 90       	pop	r0
    2b80:	1f 90       	pop	r1
    2b82:	18 95       	reti

00002b84 <__vector_8>:
    2b84:	1f 92       	push	r1
    2b86:	0f 92       	push	r0
    2b88:	00 90 5f 00 	lds	r0, 0x005F	; 0x80005f <__TEXT_REGION_LENGTH__+0x7f805f>
    2b8c:	0f 92       	push	r0
    2b8e:	11 24       	eor	r1, r1
    2b90:	2f 93       	push	r18
    2b92:	3f 93       	push	r19
    2b94:	4f 93       	push	r20
    2b96:	5f 93       	push	r21
    2b98:	6f 93       	push	r22
    2b9a:	7f 93       	push	r23
    2b9c:	8f 93       	push	r24
    2b9e:	9f 93       	push	r25
    2ba0:	af 93       	push	r26
    2ba2:	bf 93       	push	r27
    2ba4:	ef 93       	push	r30
    2ba6:	ff 93       	push	r31
    2ba8:	cf 93       	push	r28
    2baa:	df 93       	push	r29
    2bac:	cd b7       	in	r28, 0x3d	; 61
    2bae:	de b7       	in	r29, 0x3e	; 62
    2bb0:	80 91 f5 00 	lds	r24, 0x00F5	; 0x8000f5 <Timer1_OCB_Fptr>
    2bb4:	90 91 f6 00 	lds	r25, 0x00F6	; 0x8000f6 <Timer1_OCB_Fptr+0x1>
    2bb8:	89 2b       	or	r24, r25
    2bba:	31 f0       	breq	.+12     	; 0x2bc8 <__vector_8+0x44>
    2bbc:	80 91 f5 00 	lds	r24, 0x00F5	; 0x8000f5 <Timer1_OCB_Fptr>
    2bc0:	90 91 f6 00 	lds	r25, 0x00F6	; 0x8000f6 <Timer1_OCB_Fptr+0x1>
    2bc4:	fc 01       	movw	r30, r24
    2bc6:	09 95       	icall
    2bc8:	00 00       	nop
    2bca:	df 91       	pop	r29
    2bcc:	cf 91       	pop	r28
    2bce:	ff 91       	pop	r31
    2bd0:	ef 91       	pop	r30
    2bd2:	bf 91       	pop	r27
    2bd4:	af 91       	pop	r26
    2bd6:	9f 91       	pop	r25
    2bd8:	8f 91       	pop	r24
    2bda:	7f 91       	pop	r23
    2bdc:	6f 91       	pop	r22
    2bde:	5f 91       	pop	r21
    2be0:	4f 91       	pop	r20
    2be2:	3f 91       	pop	r19
    2be4:	2f 91       	pop	r18
    2be6:	0f 90       	pop	r0
    2be8:	00 92 5f 00 	sts	0x005F, r0	; 0x80005f <__TEXT_REGION_LENGTH__+0x7f805f>
    2bec:	0f 90       	pop	r0
    2bee:	1f 90       	pop	r1
    2bf0:	18 95       	reti

00002bf2 <__vector_6>:
    2bf2:	1f 92       	push	r1
    2bf4:	0f 92       	push	r0
    2bf6:	00 90 5f 00 	lds	r0, 0x005F	; 0x80005f <__TEXT_REGION_LENGTH__+0x7f805f>
    2bfa:	0f 92       	push	r0
    2bfc:	11 24       	eor	r1, r1
    2bfe:	2f 93       	push	r18
    2c00:	3f 93       	push	r19
    2c02:	4f 93       	push	r20
    2c04:	5f 93       	push	r21
    2c06:	6f 93       	push	r22
    2c08:	7f 93       	push	r23
    2c0a:	8f 93       	push	r24
    2c0c:	9f 93       	push	r25
    2c0e:	af 93       	push	r26
    2c10:	bf 93       	push	r27
    2c12:	ef 93       	push	r30
    2c14:	ff 93       	push	r31
    2c16:	cf 93       	push	r28
    2c18:	df 93       	push	r29
    2c1a:	cd b7       	in	r28, 0x3d	; 61
    2c1c:	de b7       	in	r29, 0x3e	; 62
    2c1e:	80 91 f7 00 	lds	r24, 0x00F7	; 0x8000f7 <Timer1_ICU_Fptr>
    2c22:	90 91 f8 00 	lds	r25, 0x00F8	; 0x8000f8 <Timer1_ICU_Fptr+0x1>
    2c26:	89 2b       	or	r24, r25
    2c28:	31 f0       	breq	.+12     	; 0x2c36 <__vector_6+0x44>
    2c2a:	80 91 f7 00 	lds	r24, 0x00F7	; 0x8000f7 <Timer1_ICU_Fptr>
    2c2e:	90 91 f8 00 	lds	r25, 0x00F8	; 0x8000f8 <Timer1_ICU_Fptr+0x1>
    2c32:	fc 01       	movw	r30, r24
    2c34:	09 95       	icall
    2c36:	00 00       	nop
    2c38:	df 91       	pop	r29
    2c3a:	cf 91       	pop	r28
    2c3c:	ff 91       	pop	r31
    2c3e:	ef 91       	pop	r30
    2c40:	bf 91       	pop	r27
    2c42:	af 91       	pop	r26
    2c44:	9f 91       	pop	r25
    2c46:	8f 91       	pop	r24
    2c48:	7f 91       	pop	r23
    2c4a:	6f 91       	pop	r22
    2c4c:	5f 91       	pop	r21
    2c4e:	4f 91       	pop	r20
    2c50:	3f 91       	pop	r19
    2c52:	2f 91       	pop	r18
    2c54:	0f 90       	pop	r0
    2c56:	00 92 5f 00 	sts	0x005F, r0	; 0x80005f <__TEXT_REGION_LENGTH__+0x7f805f>
    2c5a:	0f 90       	pop	r0
    2c5c:	1f 90       	pop	r1
    2c5e:	18 95       	reti

00002c60 <__vector_13>:
    2c60:	1f 92       	push	r1
    2c62:	0f 92       	push	r0
    2c64:	00 90 5f 00 	lds	r0, 0x005F	; 0x80005f <__TEXT_REGION_LENGTH__+0x7f805f>
    2c68:	0f 92       	push	r0
    2c6a:	11 24       	eor	r1, r1
    2c6c:	2f 93       	push	r18
    2c6e:	3f 93       	push	r19
    2c70:	4f 93       	push	r20
    2c72:	5f 93       	push	r21
    2c74:	6f 93       	push	r22
    2c76:	7f 93       	push	r23
    2c78:	8f 93       	push	r24
    2c7a:	9f 93       	push	r25
    2c7c:	af 93       	push	r26
    2c7e:	bf 93       	push	r27
    2c80:	ef 93       	push	r30
    2c82:	ff 93       	push	r31
    2c84:	cf 93       	push	r28
    2c86:	df 93       	push	r29
    2c88:	cd b7       	in	r28, 0x3d	; 61
    2c8a:	de b7       	in	r29, 0x3e	; 62
    2c8c:	80 91 f9 00 	lds	r24, 0x00F9	; 0x8000f9 <UART_RX_Fptr>
    2c90:	90 91 fa 00 	lds	r25, 0x00FA	; 0x8000fa <UART_RX_Fptr+0x1>
    2c94:	89 2b       	or	r24, r25
    2c96:	31 f0       	breq	.+12     	; 0x2ca4 <__vector_13+0x44>
    2c98:	80 91 f9 00 	lds	r24, 0x00F9	; 0x8000f9 <UART_RX_Fptr>
    2c9c:	90 91 fa 00 	lds	r25, 0x00FA	; 0x8000fa <UART_RX_Fptr+0x1>
    2ca0:	fc 01       	movw	r30, r24
    2ca2:	09 95       	icall
    2ca4:	00 00       	nop
    2ca6:	df 91       	pop	r29
    2ca8:	cf 91       	pop	r28
    2caa:	ff 91       	pop	r31
    2cac:	ef 91       	pop	r30
    2cae:	bf 91       	pop	r27
    2cb0:	af 91       	pop	r26
    2cb2:	9f 91       	pop	r25
    2cb4:	8f 91       	pop	r24
    2cb6:	7f 91       	pop	r23
    2cb8:	6f 91       	pop	r22
    2cba:	5f 91       	pop	r21
    2cbc:	4f 91       	pop	r20
    2cbe:	3f 91       	pop	r19
    2cc0:	2f 91       	pop	r18
    2cc2:	0f 90       	pop	r0
    2cc4:	00 92 5f 00 	sts	0x005F, r0	; 0x80005f <__TEXT_REGION_LENGTH__+0x7f805f>
    2cc8:	0f 90       	pop	r0
    2cca:	1f 90       	pop	r1
    2ccc:	18 95       	reti

00002cce <__vector_15>:
    2cce:	1f 92       	push	r1
    2cd0:	0f 92       	push	r0
    2cd2:	00 90 5f 00 	lds	r0, 0x005F	; 0x80005f <__TEXT_REGION_LENGTH__+0x7f805f>
    2cd6:	0f 92       	push	r0
    2cd8:	11 24       	eor	r1, r1
    2cda:	2f 93       	push	r18
    2cdc:	3f 93       	push	r19
    2cde:	4f 93       	push	r20
    2ce0:	5f 93       	push	r21
    2ce2:	6f 93       	push	r22
    2ce4:	7f 93       	push	r23
    2ce6:	8f 93       	push	r24
    2ce8:	9f 93       	push	r25
    2cea:	af 93       	push	r26
    2cec:	bf 93       	push	r27
    2cee:	ef 93       	push	r30
    2cf0:	ff 93       	push	r31
    2cf2:	cf 93       	push	r28
    2cf4:	df 93       	push	r29
    2cf6:	cd b7       	in	r28, 0x3d	; 61
    2cf8:	de b7       	in	r29, 0x3e	; 62
    2cfa:	80 91 fb 00 	lds	r24, 0x00FB	; 0x8000fb <UART_TX_Fptr>
    2cfe:	90 91 fc 00 	lds	r25, 0x00FC	; 0x8000fc <UART_TX_Fptr+0x1>
    2d02:	89 2b       	or	r24, r25
    2d04:	31 f0       	breq	.+12     	; 0x2d12 <__vector_15+0x44>
    2d06:	80 91 fb 00 	lds	r24, 0x00FB	; 0x8000fb <UART_TX_Fptr>
    2d0a:	90 91 fc 00 	lds	r25, 0x00FC	; 0x8000fc <UART_TX_Fptr+0x1>
    2d0e:	fc 01       	movw	r30, r24
    2d10:	09 95       	icall
    2d12:	00 00       	nop
    2d14:	df 91       	pop	r29
    2d16:	cf 91       	pop	r28
    2d18:	ff 91       	pop	r31
    2d1a:	ef 91       	pop	r30
    2d1c:	bf 91       	pop	r27
    2d1e:	af 91       	pop	r26
    2d20:	9f 91       	pop	r25
    2d22:	8f 91       	pop	r24
    2d24:	7f 91       	pop	r23
    2d26:	6f 91       	pop	r22
    2d28:	5f 91       	pop	r21
    2d2a:	4f 91       	pop	r20
    2d2c:	3f 91       	pop	r19
    2d2e:	2f 91       	pop	r18
    2d30:	0f 90       	pop	r0
    2d32:	00 92 5f 00 	sts	0x005F, r0	; 0x80005f <__TEXT_REGION_LENGTH__+0x7f805f>
    2d36:	0f 90       	pop	r0
    2d38:	1f 90       	pop	r1
    2d3a:	18 95       	reti

00002d3c <__cmpsf2>:
    2d3c:	0e 94 d2 16 	call	0x2da4	; 0x2da4 <__fp_cmp>
    2d40:	08 f4       	brcc	.+2      	; 0x2d44 <__cmpsf2+0x8>
    2d42:	81 e0       	ldi	r24, 0x01	; 1
    2d44:	08 95       	ret

00002d46 <__fixunssfsi>:
    2d46:	0e 94 26 17 	call	0x2e4c	; 0x2e4c <__fp_splitA>
    2d4a:	88 f0       	brcs	.+34     	; 0x2d6e <__fixunssfsi+0x28>
    2d4c:	9f 57       	subi	r25, 0x7F	; 127
    2d4e:	98 f0       	brcs	.+38     	; 0x2d76 <__fixunssfsi+0x30>
    2d50:	b9 2f       	mov	r27, r25
    2d52:	99 27       	eor	r25, r25
    2d54:	b7 51       	subi	r27, 0x17	; 23
    2d56:	b0 f0       	brcs	.+44     	; 0x2d84 <__fixunssfsi+0x3e>
    2d58:	e1 f0       	breq	.+56     	; 0x2d92 <__fixunssfsi+0x4c>
    2d5a:	66 0f       	add	r22, r22
    2d5c:	77 1f       	adc	r23, r23
    2d5e:	88 1f       	adc	r24, r24
    2d60:	99 1f       	adc	r25, r25
    2d62:	1a f0       	brmi	.+6      	; 0x2d6a <__fixunssfsi+0x24>
    2d64:	ba 95       	dec	r27
    2d66:	c9 f7       	brne	.-14     	; 0x2d5a <__fixunssfsi+0x14>
    2d68:	14 c0       	rjmp	.+40     	; 0x2d92 <__fixunssfsi+0x4c>
    2d6a:	b1 30       	cpi	r27, 0x01	; 1
    2d6c:	91 f0       	breq	.+36     	; 0x2d92 <__fixunssfsi+0x4c>
    2d6e:	0e 94 40 17 	call	0x2e80	; 0x2e80 <__fp_zero>
    2d72:	b1 e0       	ldi	r27, 0x01	; 1
    2d74:	08 95       	ret
    2d76:	0c 94 40 17 	jmp	0x2e80	; 0x2e80 <__fp_zero>
    2d7a:	67 2f       	mov	r22, r23
    2d7c:	78 2f       	mov	r23, r24
    2d7e:	88 27       	eor	r24, r24
    2d80:	b8 5f       	subi	r27, 0xF8	; 248
    2d82:	39 f0       	breq	.+14     	; 0x2d92 <__fixunssfsi+0x4c>
    2d84:	b9 3f       	cpi	r27, 0xF9	; 249
    2d86:	cc f3       	brlt	.-14     	; 0x2d7a <__fixunssfsi+0x34>
    2d88:	86 95       	lsr	r24
    2d8a:	77 95       	ror	r23
    2d8c:	67 95       	ror	r22
    2d8e:	b3 95       	inc	r27
    2d90:	d9 f7       	brne	.-10     	; 0x2d88 <__fixunssfsi+0x42>
    2d92:	3e f4       	brtc	.+14     	; 0x2da2 <__fixunssfsi+0x5c>
    2d94:	90 95       	com	r25
    2d96:	80 95       	com	r24
    2d98:	70 95       	com	r23
    2d9a:	61 95       	neg	r22
    2d9c:	7f 4f       	sbci	r23, 0xFF	; 255
    2d9e:	8f 4f       	sbci	r24, 0xFF	; 255
    2da0:	9f 4f       	sbci	r25, 0xFF	; 255
    2da2:	08 95       	ret

00002da4 <__fp_cmp>:
    2da4:	99 0f       	add	r25, r25
    2da6:	00 08       	sbc	r0, r0
    2da8:	55 0f       	add	r21, r21
    2daa:	aa 0b       	sbc	r26, r26
    2dac:	e0 e8       	ldi	r30, 0x80	; 128
    2dae:	fe ef       	ldi	r31, 0xFE	; 254
    2db0:	16 16       	cp	r1, r22
    2db2:	17 06       	cpc	r1, r23
    2db4:	e8 07       	cpc	r30, r24
    2db6:	f9 07       	cpc	r31, r25
    2db8:	c0 f0       	brcs	.+48     	; 0x2dea <__fp_cmp+0x46>
    2dba:	12 16       	cp	r1, r18
    2dbc:	13 06       	cpc	r1, r19
    2dbe:	e4 07       	cpc	r30, r20
    2dc0:	f5 07       	cpc	r31, r21
    2dc2:	98 f0       	brcs	.+38     	; 0x2dea <__fp_cmp+0x46>
    2dc4:	62 1b       	sub	r22, r18
    2dc6:	73 0b       	sbc	r23, r19
    2dc8:	84 0b       	sbc	r24, r20
    2dca:	95 0b       	sbc	r25, r21
    2dcc:	39 f4       	brne	.+14     	; 0x2ddc <__fp_cmp+0x38>
    2dce:	0a 26       	eor	r0, r26
    2dd0:	61 f0       	breq	.+24     	; 0x2dea <__fp_cmp+0x46>
    2dd2:	23 2b       	or	r18, r19
    2dd4:	24 2b       	or	r18, r20
    2dd6:	25 2b       	or	r18, r21
    2dd8:	21 f4       	brne	.+8      	; 0x2de2 <__fp_cmp+0x3e>
    2dda:	08 95       	ret
    2ddc:	0a 26       	eor	r0, r26
    2dde:	09 f4       	brne	.+2      	; 0x2de2 <__fp_cmp+0x3e>
    2de0:	a1 40       	sbci	r26, 0x01	; 1
    2de2:	a6 95       	lsr	r26
    2de4:	8f ef       	ldi	r24, 0xFF	; 255
    2de6:	81 1d       	adc	r24, r1
    2de8:	81 1d       	adc	r24, r1
    2dea:	08 95       	ret

00002dec <__fp_inf>:
    2dec:	97 f9       	bld	r25, 7
    2dee:	9f 67       	ori	r25, 0x7F	; 127
    2df0:	80 e8       	ldi	r24, 0x80	; 128
    2df2:	70 e0       	ldi	r23, 0x00	; 0
    2df4:	60 e0       	ldi	r22, 0x00	; 0
    2df6:	08 95       	ret

00002df8 <__fp_nan>:
    2df8:	9f ef       	ldi	r25, 0xFF	; 255
    2dfa:	80 ec       	ldi	r24, 0xC0	; 192
    2dfc:	08 95       	ret

00002dfe <__fp_pscA>:
    2dfe:	00 24       	eor	r0, r0
    2e00:	0a 94       	dec	r0
    2e02:	16 16       	cp	r1, r22
    2e04:	17 06       	cpc	r1, r23
    2e06:	18 06       	cpc	r1, r24
    2e08:	09 06       	cpc	r0, r25
    2e0a:	08 95       	ret

00002e0c <__fp_pscB>:
    2e0c:	00 24       	eor	r0, r0
    2e0e:	0a 94       	dec	r0
    2e10:	12 16       	cp	r1, r18
    2e12:	13 06       	cpc	r1, r19
    2e14:	14 06       	cpc	r1, r20
    2e16:	05 06       	cpc	r0, r21
    2e18:	08 95       	ret

00002e1a <__fp_round>:
    2e1a:	09 2e       	mov	r0, r25
    2e1c:	03 94       	inc	r0
    2e1e:	00 0c       	add	r0, r0
    2e20:	11 f4       	brne	.+4      	; 0x2e26 <__fp_round+0xc>
    2e22:	88 23       	and	r24, r24
    2e24:	52 f0       	brmi	.+20     	; 0x2e3a <__fp_round+0x20>
    2e26:	bb 0f       	add	r27, r27
    2e28:	40 f4       	brcc	.+16     	; 0x2e3a <__fp_round+0x20>
    2e2a:	bf 2b       	or	r27, r31
    2e2c:	11 f4       	brne	.+4      	; 0x2e32 <__fp_round+0x18>
    2e2e:	60 ff       	sbrs	r22, 0
    2e30:	04 c0       	rjmp	.+8      	; 0x2e3a <__fp_round+0x20>
    2e32:	6f 5f       	subi	r22, 0xFF	; 255
    2e34:	7f 4f       	sbci	r23, 0xFF	; 255
    2e36:	8f 4f       	sbci	r24, 0xFF	; 255
    2e38:	9f 4f       	sbci	r25, 0xFF	; 255
    2e3a:	08 95       	ret

00002e3c <__fp_split3>:
    2e3c:	57 fd       	sbrc	r21, 7
    2e3e:	90 58       	subi	r25, 0x80	; 128
    2e40:	44 0f       	add	r20, r20
    2e42:	55 1f       	adc	r21, r21
    2e44:	59 f0       	breq	.+22     	; 0x2e5c <__fp_splitA+0x10>
    2e46:	5f 3f       	cpi	r21, 0xFF	; 255
    2e48:	71 f0       	breq	.+28     	; 0x2e66 <__fp_splitA+0x1a>
    2e4a:	47 95       	ror	r20

00002e4c <__fp_splitA>:
    2e4c:	88 0f       	add	r24, r24
    2e4e:	97 fb       	bst	r25, 7
    2e50:	99 1f       	adc	r25, r25
    2e52:	61 f0       	breq	.+24     	; 0x2e6c <__fp_splitA+0x20>
    2e54:	9f 3f       	cpi	r25, 0xFF	; 255
    2e56:	79 f0       	breq	.+30     	; 0x2e76 <__fp_splitA+0x2a>
    2e58:	87 95       	ror	r24
    2e5a:	08 95       	ret
    2e5c:	12 16       	cp	r1, r18
    2e5e:	13 06       	cpc	r1, r19
    2e60:	14 06       	cpc	r1, r20
    2e62:	55 1f       	adc	r21, r21
    2e64:	f2 cf       	rjmp	.-28     	; 0x2e4a <__fp_split3+0xe>
    2e66:	46 95       	lsr	r20
    2e68:	f1 df       	rcall	.-30     	; 0x2e4c <__fp_splitA>
    2e6a:	08 c0       	rjmp	.+16     	; 0x2e7c <__fp_splitA+0x30>
    2e6c:	16 16       	cp	r1, r22
    2e6e:	17 06       	cpc	r1, r23
    2e70:	18 06       	cpc	r1, r24
    2e72:	99 1f       	adc	r25, r25
    2e74:	f1 cf       	rjmp	.-30     	; 0x2e58 <__fp_splitA+0xc>
    2e76:	86 95       	lsr	r24
    2e78:	71 05       	cpc	r23, r1
    2e7a:	61 05       	cpc	r22, r1
    2e7c:	08 94       	sec
    2e7e:	08 95       	ret

00002e80 <__fp_zero>:
    2e80:	e8 94       	clt

00002e82 <__fp_szero>:
    2e82:	bb 27       	eor	r27, r27
    2e84:	66 27       	eor	r22, r22
    2e86:	77 27       	eor	r23, r23
    2e88:	cb 01       	movw	r24, r22
    2e8a:	97 f9       	bld	r25, 7
    2e8c:	08 95       	ret

00002e8e <__gesf2>:
    2e8e:	0e 94 d2 16 	call	0x2da4	; 0x2da4 <__fp_cmp>
    2e92:	08 f4       	brcc	.+2      	; 0x2e96 <__gesf2+0x8>
    2e94:	8f ef       	ldi	r24, 0xFF	; 255
    2e96:	08 95       	ret

00002e98 <__mulsf3>:
    2e98:	0e 94 5f 17 	call	0x2ebe	; 0x2ebe <__mulsf3x>
    2e9c:	0c 94 0d 17 	jmp	0x2e1a	; 0x2e1a <__fp_round>
    2ea0:	0e 94 ff 16 	call	0x2dfe	; 0x2dfe <__fp_pscA>
    2ea4:	38 f0       	brcs	.+14     	; 0x2eb4 <__mulsf3+0x1c>
    2ea6:	0e 94 06 17 	call	0x2e0c	; 0x2e0c <__fp_pscB>
    2eaa:	20 f0       	brcs	.+8      	; 0x2eb4 <__mulsf3+0x1c>
    2eac:	95 23       	and	r25, r21
    2eae:	11 f0       	breq	.+4      	; 0x2eb4 <__mulsf3+0x1c>
    2eb0:	0c 94 f6 16 	jmp	0x2dec	; 0x2dec <__fp_inf>
    2eb4:	0c 94 fc 16 	jmp	0x2df8	; 0x2df8 <__fp_nan>
    2eb8:	11 24       	eor	r1, r1
    2eba:	0c 94 41 17 	jmp	0x2e82	; 0x2e82 <__fp_szero>

00002ebe <__mulsf3x>:
    2ebe:	0e 94 1e 17 	call	0x2e3c	; 0x2e3c <__fp_split3>
    2ec2:	70 f3       	brcs	.-36     	; 0x2ea0 <__mulsf3+0x8>

00002ec4 <__mulsf3_pse>:
    2ec4:	95 9f       	mul	r25, r21
    2ec6:	c1 f3       	breq	.-16     	; 0x2eb8 <__mulsf3+0x20>
    2ec8:	95 0f       	add	r25, r21
    2eca:	50 e0       	ldi	r21, 0x00	; 0
    2ecc:	55 1f       	adc	r21, r21
    2ece:	62 9f       	mul	r22, r18
    2ed0:	f0 01       	movw	r30, r0
    2ed2:	72 9f       	mul	r23, r18
    2ed4:	bb 27       	eor	r27, r27
    2ed6:	f0 0d       	add	r31, r0
    2ed8:	b1 1d       	adc	r27, r1
    2eda:	63 9f       	mul	r22, r19
    2edc:	aa 27       	eor	r26, r26
    2ede:	f0 0d       	add	r31, r0
    2ee0:	b1 1d       	adc	r27, r1
    2ee2:	aa 1f       	adc	r26, r26
    2ee4:	64 9f       	mul	r22, r20
    2ee6:	66 27       	eor	r22, r22
    2ee8:	b0 0d       	add	r27, r0
    2eea:	a1 1d       	adc	r26, r1
    2eec:	66 1f       	adc	r22, r22
    2eee:	82 9f       	mul	r24, r18
    2ef0:	22 27       	eor	r18, r18
    2ef2:	b0 0d       	add	r27, r0
    2ef4:	a1 1d       	adc	r26, r1
    2ef6:	62 1f       	adc	r22, r18
    2ef8:	73 9f       	mul	r23, r19
    2efa:	b0 0d       	add	r27, r0
    2efc:	a1 1d       	adc	r26, r1
    2efe:	62 1f       	adc	r22, r18
    2f00:	83 9f       	mul	r24, r19
    2f02:	a0 0d       	add	r26, r0
    2f04:	61 1d       	adc	r22, r1
    2f06:	22 1f       	adc	r18, r18
    2f08:	74 9f       	mul	r23, r20
    2f0a:	33 27       	eor	r19, r19
    2f0c:	a0 0d       	add	r26, r0
    2f0e:	61 1d       	adc	r22, r1
    2f10:	23 1f       	adc	r18, r19
    2f12:	84 9f       	mul	r24, r20
    2f14:	60 0d       	add	r22, r0
    2f16:	21 1d       	adc	r18, r1
    2f18:	82 2f       	mov	r24, r18
    2f1a:	76 2f       	mov	r23, r22
    2f1c:	6a 2f       	mov	r22, r26
    2f1e:	11 24       	eor	r1, r1
    2f20:	9f 57       	subi	r25, 0x7F	; 127
    2f22:	50 40       	sbci	r21, 0x00	; 0
    2f24:	9a f0       	brmi	.+38     	; 0x2f4c <__mulsf3_pse+0x88>
    2f26:	f1 f0       	breq	.+60     	; 0x2f64 <__mulsf3_pse+0xa0>
    2f28:	88 23       	and	r24, r24
    2f2a:	4a f0       	brmi	.+18     	; 0x2f3e <__mulsf3_pse+0x7a>
    2f2c:	ee 0f       	add	r30, r30
    2f2e:	ff 1f       	adc	r31, r31
    2f30:	bb 1f       	adc	r27, r27
    2f32:	66 1f       	adc	r22, r22
    2f34:	77 1f       	adc	r23, r23
    2f36:	88 1f       	adc	r24, r24
    2f38:	91 50       	subi	r25, 0x01	; 1
    2f3a:	50 40       	sbci	r21, 0x00	; 0
    2f3c:	a9 f7       	brne	.-22     	; 0x2f28 <__mulsf3_pse+0x64>
    2f3e:	9e 3f       	cpi	r25, 0xFE	; 254
    2f40:	51 05       	cpc	r21, r1
    2f42:	80 f0       	brcs	.+32     	; 0x2f64 <__mulsf3_pse+0xa0>
    2f44:	0c 94 f6 16 	jmp	0x2dec	; 0x2dec <__fp_inf>
    2f48:	0c 94 41 17 	jmp	0x2e82	; 0x2e82 <__fp_szero>
    2f4c:	5f 3f       	cpi	r21, 0xFF	; 255
    2f4e:	e4 f3       	brlt	.-8      	; 0x2f48 <__mulsf3_pse+0x84>
    2f50:	98 3e       	cpi	r25, 0xE8	; 232
    2f52:	d4 f3       	brlt	.-12     	; 0x2f48 <__mulsf3_pse+0x84>
    2f54:	86 95       	lsr	r24
    2f56:	77 95       	ror	r23
    2f58:	67 95       	ror	r22
    2f5a:	b7 95       	ror	r27
    2f5c:	f7 95       	ror	r31
    2f5e:	e7 95       	ror	r30
    2f60:	9f 5f       	subi	r25, 0xFF	; 255
    2f62:	c1 f7       	brne	.-16     	; 0x2f54 <__mulsf3_pse+0x90>
    2f64:	fe 2b       	or	r31, r30
    2f66:	88 0f       	add	r24, r24
    2f68:	91 1d       	adc	r25, r1
    2f6a:	96 95       	lsr	r25
    2f6c:	87 95       	ror	r24
    2f6e:	97 f9       	bld	r25, 7
    2f70:	08 95       	ret

00002f72 <__udivmodsi4>:
    2f72:	a1 e2       	ldi	r26, 0x21	; 33
    2f74:	1a 2e       	mov	r1, r26
    2f76:	aa 1b       	sub	r26, r26
    2f78:	bb 1b       	sub	r27, r27
    2f7a:	fd 01       	movw	r30, r26
    2f7c:	0d c0       	rjmp	.+26     	; 0x2f98 <__udivmodsi4_ep>

00002f7e <__udivmodsi4_loop>:
    2f7e:	aa 1f       	adc	r26, r26
    2f80:	bb 1f       	adc	r27, r27
    2f82:	ee 1f       	adc	r30, r30
    2f84:	ff 1f       	adc	r31, r31
    2f86:	a2 17       	cp	r26, r18
    2f88:	b3 07       	cpc	r27, r19
    2f8a:	e4 07       	cpc	r30, r20
    2f8c:	f5 07       	cpc	r31, r21
    2f8e:	20 f0       	brcs	.+8      	; 0x2f98 <__udivmodsi4_ep>
    2f90:	a2 1b       	sub	r26, r18
    2f92:	b3 0b       	sbc	r27, r19
    2f94:	e4 0b       	sbc	r30, r20
    2f96:	f5 0b       	sbc	r31, r21

00002f98 <__udivmodsi4_ep>:
    2f98:	66 1f       	adc	r22, r22
    2f9a:	77 1f       	adc	r23, r23
    2f9c:	88 1f       	adc	r24, r24
    2f9e:	99 1f       	adc	r25, r25
    2fa0:	1a 94       	dec	r1
    2fa2:	69 f7       	brne	.-38     	; 0x2f7e <__udivmodsi4_loop>
    2fa4:	60 95       	com	r22
    2fa6:	70 95       	com	r23
    2fa8:	80 95       	com	r24
    2faa:	90 95       	com	r25
    2fac:	9b 01       	movw	r18, r22
    2fae:	ac 01       	movw	r20, r24
    2fb0:	bd 01       	movw	r22, r26
    2fb2:	cf 01       	movw	r24, r30
    2fb4:	08 95       	ret

00002fb6 <__divmodsi4>:
    2fb6:	05 2e       	mov	r0, r21
    2fb8:	97 fb       	bst	r25, 7
    2fba:	1e f4       	brtc	.+6      	; 0x2fc2 <__divmodsi4+0xc>
    2fbc:	00 94       	com	r0
    2fbe:	0e 94 f2 17 	call	0x2fe4	; 0x2fe4 <__negsi2>
    2fc2:	57 fd       	sbrc	r21, 7
    2fc4:	07 d0       	rcall	.+14     	; 0x2fd4 <__divmodsi4_neg2>
    2fc6:	0e 94 b9 17 	call	0x2f72	; 0x2f72 <__udivmodsi4>
    2fca:	07 fc       	sbrc	r0, 7
    2fcc:	03 d0       	rcall	.+6      	; 0x2fd4 <__divmodsi4_neg2>
    2fce:	4e f4       	brtc	.+18     	; 0x2fe2 <__divmodsi4_exit>
    2fd0:	0c 94 f2 17 	jmp	0x2fe4	; 0x2fe4 <__negsi2>

00002fd4 <__divmodsi4_neg2>:
    2fd4:	50 95       	com	r21
    2fd6:	40 95       	com	r20
    2fd8:	30 95       	com	r19
    2fda:	21 95       	neg	r18
    2fdc:	3f 4f       	sbci	r19, 0xFF	; 255
    2fde:	4f 4f       	sbci	r20, 0xFF	; 255
    2fe0:	5f 4f       	sbci	r21, 0xFF	; 255

00002fe2 <__divmodsi4_exit>:
    2fe2:	08 95       	ret

00002fe4 <__negsi2>:
    2fe4:	90 95       	com	r25
    2fe6:	80 95       	com	r24
    2fe8:	70 95       	com	r23
    2fea:	61 95       	neg	r22
    2fec:	7f 4f       	sbci	r23, 0xFF	; 255
    2fee:	8f 4f       	sbci	r24, 0xFF	; 255
    2ff0:	9f 4f       	sbci	r25, 0xFF	; 255
    2ff2:	08 95       	ret

00002ff4 <__umulhisi3>:
    2ff4:	a2 9f       	mul	r26, r18
    2ff6:	b0 01       	movw	r22, r0
    2ff8:	b3 9f       	mul	r27, r19
    2ffa:	c0 01       	movw	r24, r0
    2ffc:	a3 9f       	mul	r26, r19
    2ffe:	70 0d       	add	r23, r0
    3000:	81 1d       	adc	r24, r1
    3002:	11 24       	eor	r1, r1
    3004:	91 1d       	adc	r25, r1
    3006:	b2 9f       	mul	r27, r18
    3008:	70 0d       	add	r23, r0
    300a:	81 1d       	adc	r24, r1
    300c:	11 24       	eor	r1, r1
    300e:	91 1d       	adc	r25, r1
    3010:	08 95       	ret

00003012 <__muluhisi3>:
    3012:	0e 94 fa 17 	call	0x2ff4	; 0x2ff4 <__umulhisi3>
    3016:	a5 9f       	mul	r26, r21
    3018:	90 0d       	add	r25, r0
    301a:	b4 9f       	mul	r27, r20
    301c:	90 0d       	add	r25, r0
    301e:	a4 9f       	mul	r26, r20
    3020:	80 0d       	add	r24, r0
    3022:	91 1d       	adc	r25, r1
    3024:	11 24       	eor	r1, r1
    3026:	08 95       	ret

00003028 <_exit>:
    3028:	f8 94       	cli

0000302a <__stop_program>:
    302a:	ff cf       	rjmp	.-2      	; 0x302a <__stop_program>
